
ctarget:     file format elf64-x86-64


Disassembly of section .init:

0000000000401000 <_init>:
  401000:	48 83 ec 08          	sub    $0x8,%rsp
  401004:	48 8b 05 ed 4f 00 00 	mov    0x4fed(%rip),%rax        # 405ff8 <__gmon_start__>
  40100b:	48 85 c0             	test   %rax,%rax
  40100e:	74 02                	je     401012 <_init+0x12>
  401010:	ff d0                	callq  *%rax
  401012:	48 83 c4 08          	add    $0x8,%rsp
  401016:	c3                   	retq   

Disassembly of section .plt:

0000000000401020 <.plt>:
  401020:	ff 35 e2 4f 00 00    	pushq  0x4fe2(%rip)        # 406008 <_GLOBAL_OFFSET_TABLE_+0x8>
  401026:	ff 25 e4 4f 00 00    	jmpq   *0x4fe4(%rip)        # 406010 <_GLOBAL_OFFSET_TABLE_+0x10>
  40102c:	0f 1f 40 00          	nopl   0x0(%rax)

0000000000401030 <strcasecmp@plt>:
  401030:	ff 25 e2 4f 00 00    	jmpq   *0x4fe2(%rip)        # 406018 <strcasecmp@GLIBC_2.2.5>
  401036:	68 00 00 00 00       	pushq  $0x0
  40103b:	e9 e0 ff ff ff       	jmpq   401020 <.plt>

0000000000401040 <__errno_location@plt>:
  401040:	ff 25 da 4f 00 00    	jmpq   *0x4fda(%rip)        # 406020 <__errno_location@GLIBC_2.2.5>
  401046:	68 01 00 00 00       	pushq  $0x1
  40104b:	e9 d0 ff ff ff       	jmpq   401020 <.plt>

0000000000401050 <srandom@plt>:
  401050:	ff 25 d2 4f 00 00    	jmpq   *0x4fd2(%rip)        # 406028 <srandom@GLIBC_2.2.5>
  401056:	68 02 00 00 00       	pushq  $0x2
  40105b:	e9 c0 ff ff ff       	jmpq   401020 <.plt>

0000000000401060 <strncmp@plt>:
  401060:	ff 25 ca 4f 00 00    	jmpq   *0x4fca(%rip)        # 406030 <strncmp@GLIBC_2.2.5>
  401066:	68 03 00 00 00       	pushq  $0x3
  40106b:	e9 b0 ff ff ff       	jmpq   401020 <.plt>

0000000000401070 <strcpy@plt>:
  401070:	ff 25 c2 4f 00 00    	jmpq   *0x4fc2(%rip)        # 406038 <strcpy@GLIBC_2.2.5>
  401076:	68 04 00 00 00       	pushq  $0x4
  40107b:	e9 a0 ff ff ff       	jmpq   401020 <.plt>

0000000000401080 <puts@plt>:
  401080:	ff 25 ba 4f 00 00    	jmpq   *0x4fba(%rip)        # 406040 <puts@GLIBC_2.2.5>
  401086:	68 05 00 00 00       	pushq  $0x5
  40108b:	e9 90 ff ff ff       	jmpq   401020 <.plt>

0000000000401090 <write@plt>:
  401090:	ff 25 b2 4f 00 00    	jmpq   *0x4fb2(%rip)        # 406048 <write@GLIBC_2.2.5>
  401096:	68 06 00 00 00       	pushq  $0x6
  40109b:	e9 80 ff ff ff       	jmpq   401020 <.plt>

00000000004010a0 <mmap@plt>:
  4010a0:	ff 25 aa 4f 00 00    	jmpq   *0x4faa(%rip)        # 406050 <mmap@GLIBC_2.2.5>
  4010a6:	68 07 00 00 00       	pushq  $0x7
  4010ab:	e9 70 ff ff ff       	jmpq   401020 <.plt>

00000000004010b0 <printf@plt>:
  4010b0:	ff 25 a2 4f 00 00    	jmpq   *0x4fa2(%rip)        # 406058 <printf@GLIBC_2.2.5>
  4010b6:	68 08 00 00 00       	pushq  $0x8
  4010bb:	e9 60 ff ff ff       	jmpq   401020 <.plt>

00000000004010c0 <memset@plt>:
  4010c0:	ff 25 9a 4f 00 00    	jmpq   *0x4f9a(%rip)        # 406060 <memset@GLIBC_2.2.5>
  4010c6:	68 09 00 00 00       	pushq  $0x9
  4010cb:	e9 50 ff ff ff       	jmpq   401020 <.plt>

00000000004010d0 <alarm@plt>:
  4010d0:	ff 25 92 4f 00 00    	jmpq   *0x4f92(%rip)        # 406068 <alarm@GLIBC_2.2.5>
  4010d6:	68 0a 00 00 00       	pushq  $0xa
  4010db:	e9 40 ff ff ff       	jmpq   401020 <.plt>

00000000004010e0 <close@plt>:
  4010e0:	ff 25 8a 4f 00 00    	jmpq   *0x4f8a(%rip)        # 406070 <close@GLIBC_2.2.5>
  4010e6:	68 0b 00 00 00       	pushq  $0xb
  4010eb:	e9 30 ff ff ff       	jmpq   401020 <.plt>

00000000004010f0 <read@plt>:
  4010f0:	ff 25 82 4f 00 00    	jmpq   *0x4f82(%rip)        # 406078 <read@GLIBC_2.2.5>
  4010f6:	68 0c 00 00 00       	pushq  $0xc
  4010fb:	e9 20 ff ff ff       	jmpq   401020 <.plt>

0000000000401100 <signal@plt>:
  401100:	ff 25 7a 4f 00 00    	jmpq   *0x4f7a(%rip)        # 406080 <signal@GLIBC_2.2.5>
  401106:	68 0d 00 00 00       	pushq  $0xd
  40110b:	e9 10 ff ff ff       	jmpq   401020 <.plt>

0000000000401110 <gethostbyname@plt>:
  401110:	ff 25 72 4f 00 00    	jmpq   *0x4f72(%rip)        # 406088 <gethostbyname@GLIBC_2.2.5>
  401116:	68 0e 00 00 00       	pushq  $0xe
  40111b:	e9 00 ff ff ff       	jmpq   401020 <.plt>

0000000000401120 <fprintf@plt>:
  401120:	ff 25 6a 4f 00 00    	jmpq   *0x4f6a(%rip)        # 406090 <fprintf@GLIBC_2.2.5>
  401126:	68 0f 00 00 00       	pushq  $0xf
  40112b:	e9 f0 fe ff ff       	jmpq   401020 <.plt>

0000000000401130 <strtol@plt>:
  401130:	ff 25 62 4f 00 00    	jmpq   *0x4f62(%rip)        # 406098 <strtol@GLIBC_2.2.5>
  401136:	68 10 00 00 00       	pushq  $0x10
  40113b:	e9 e0 fe ff ff       	jmpq   401020 <.plt>

0000000000401140 <memcpy@plt>:
  401140:	ff 25 5a 4f 00 00    	jmpq   *0x4f5a(%rip)        # 4060a0 <memcpy@GLIBC_2.14>
  401146:	68 11 00 00 00       	pushq  $0x11
  40114b:	e9 d0 fe ff ff       	jmpq   401020 <.plt>

0000000000401150 <time@plt>:
  401150:	ff 25 52 4f 00 00    	jmpq   *0x4f52(%rip)        # 4060a8 <time@GLIBC_2.2.5>
  401156:	68 12 00 00 00       	pushq  $0x12
  40115b:	e9 c0 fe ff ff       	jmpq   401020 <.plt>

0000000000401160 <random@plt>:
  401160:	ff 25 4a 4f 00 00    	jmpq   *0x4f4a(%rip)        # 4060b0 <random@GLIBC_2.2.5>
  401166:	68 13 00 00 00       	pushq  $0x13
  40116b:	e9 b0 fe ff ff       	jmpq   401020 <.plt>

0000000000401170 <__isoc99_sscanf@plt>:
  401170:	ff 25 42 4f 00 00    	jmpq   *0x4f42(%rip)        # 4060b8 <__isoc99_sscanf@GLIBC_2.7>
  401176:	68 14 00 00 00       	pushq  $0x14
  40117b:	e9 a0 fe ff ff       	jmpq   401020 <.plt>

0000000000401180 <munmap@plt>:
  401180:	ff 25 3a 4f 00 00    	jmpq   *0x4f3a(%rip)        # 4060c0 <munmap@GLIBC_2.2.5>
  401186:	68 15 00 00 00       	pushq  $0x15
  40118b:	e9 90 fe ff ff       	jmpq   401020 <.plt>

0000000000401190 <memmove@plt>:
  401190:	ff 25 32 4f 00 00    	jmpq   *0x4f32(%rip)        # 4060c8 <memmove@GLIBC_2.2.5>
  401196:	68 16 00 00 00       	pushq  $0x16
  40119b:	e9 80 fe ff ff       	jmpq   401020 <.plt>

00000000004011a0 <fopen@plt>:
  4011a0:	ff 25 2a 4f 00 00    	jmpq   *0x4f2a(%rip)        # 4060d0 <fopen@GLIBC_2.2.5>
  4011a6:	68 17 00 00 00       	pushq  $0x17
  4011ab:	e9 70 fe ff ff       	jmpq   401020 <.plt>

00000000004011b0 <getopt@plt>:
  4011b0:	ff 25 22 4f 00 00    	jmpq   *0x4f22(%rip)        # 4060d8 <getopt@GLIBC_2.2.5>
  4011b6:	68 18 00 00 00       	pushq  $0x18
  4011bb:	e9 60 fe ff ff       	jmpq   401020 <.plt>

00000000004011c0 <strtoul@plt>:
  4011c0:	ff 25 1a 4f 00 00    	jmpq   *0x4f1a(%rip)        # 4060e0 <strtoul@GLIBC_2.2.5>
  4011c6:	68 19 00 00 00       	pushq  $0x19
  4011cb:	e9 50 fe ff ff       	jmpq   401020 <.plt>

00000000004011d0 <gethostname@plt>:
  4011d0:	ff 25 12 4f 00 00    	jmpq   *0x4f12(%rip)        # 4060e8 <gethostname@GLIBC_2.2.5>
  4011d6:	68 1a 00 00 00       	pushq  $0x1a
  4011db:	e9 40 fe ff ff       	jmpq   401020 <.plt>

00000000004011e0 <sprintf@plt>:
  4011e0:	ff 25 0a 4f 00 00    	jmpq   *0x4f0a(%rip)        # 4060f0 <sprintf@GLIBC_2.2.5>
  4011e6:	68 1b 00 00 00       	pushq  $0x1b
  4011eb:	e9 30 fe ff ff       	jmpq   401020 <.plt>

00000000004011f0 <exit@plt>:
  4011f0:	ff 25 02 4f 00 00    	jmpq   *0x4f02(%rip)        # 4060f8 <exit@GLIBC_2.2.5>
  4011f6:	68 1c 00 00 00       	pushq  $0x1c
  4011fb:	e9 20 fe ff ff       	jmpq   401020 <.plt>

0000000000401200 <connect@plt>:
  401200:	ff 25 fa 4e 00 00    	jmpq   *0x4efa(%rip)        # 406100 <connect@GLIBC_2.2.5>
  401206:	68 1d 00 00 00       	pushq  $0x1d
  40120b:	e9 10 fe ff ff       	jmpq   401020 <.plt>

0000000000401210 <getc@plt>:
  401210:	ff 25 f2 4e 00 00    	jmpq   *0x4ef2(%rip)        # 406108 <getc@GLIBC_2.2.5>
  401216:	68 1e 00 00 00       	pushq  $0x1e
  40121b:	e9 00 fe ff ff       	jmpq   401020 <.plt>

0000000000401220 <socket@plt>:
  401220:	ff 25 ea 4e 00 00    	jmpq   *0x4eea(%rip)        # 406110 <socket@GLIBC_2.2.5>
  401226:	68 1f 00 00 00       	pushq  $0x1f
  40122b:	e9 f0 fd ff ff       	jmpq   401020 <.plt>

Disassembly of section .text:

0000000000401230 <_start>:
  401230:	31 ed                	xor    %ebp,%ebp
  401232:	49 89 d1             	mov    %rdx,%r9
  401235:	5e                   	pop    %rsi
  401236:	48 89 e2             	mov    %rsp,%rdx
  401239:	48 83 e4 f0          	and    $0xfffffffffffffff0,%rsp
  40123d:	50                   	push   %rax
  40123e:	54                   	push   %rsp
  40123f:	49 c7 c0 60 2f 40 00 	mov    $0x402f60,%r8
  401246:	48 c7 c1 00 2f 40 00 	mov    $0x402f00,%rcx
  40124d:	48 c7 c7 f6 14 40 00 	mov    $0x4014f6,%rdi
  401254:	ff 15 96 4d 00 00    	callq  *0x4d96(%rip)        # 405ff0 <__libc_start_main@GLIBC_2.2.5>
  40125a:	f4                   	hlt    
  40125b:	0f 1f 44 00 00       	nopl   0x0(%rax,%rax,1)

0000000000401260 <_dl_relocate_static_pie>:
  401260:	c3                   	retq   
  401261:	66 2e 0f 1f 84 00 00 	nopw   %cs:0x0(%rax,%rax,1)
  401268:	00 00 00 
  40126b:	0f 1f 44 00 00       	nopl   0x0(%rax,%rax,1)

0000000000401270 <deregister_tm_clones>:
  401270:	b8 88 64 40 00       	mov    $0x406488,%eax
  401275:	48 3d 88 64 40 00    	cmp    $0x406488,%rax
  40127b:	74 13                	je     401290 <deregister_tm_clones+0x20>
  40127d:	b8 00 00 00 00       	mov    $0x0,%eax
  401282:	48 85 c0             	test   %rax,%rax
  401285:	74 09                	je     401290 <deregister_tm_clones+0x20>
  401287:	bf 88 64 40 00       	mov    $0x406488,%edi
  40128c:	ff e0                	jmpq   *%rax
  40128e:	66 90                	xchg   %ax,%ax
  401290:	c3                   	retq   
  401291:	66 66 2e 0f 1f 84 00 	data16 nopw %cs:0x0(%rax,%rax,1)
  401298:	00 00 00 00 
  40129c:	0f 1f 40 00          	nopl   0x0(%rax)

00000000004012a0 <register_tm_clones>:
  4012a0:	be 88 64 40 00       	mov    $0x406488,%esi
  4012a5:	48 81 ee 88 64 40 00 	sub    $0x406488,%rsi
  4012ac:	48 c1 fe 03          	sar    $0x3,%rsi
  4012b0:	48 89 f0             	mov    %rsi,%rax
  4012b3:	48 c1 e8 3f          	shr    $0x3f,%rax
  4012b7:	48 01 c6             	add    %rax,%rsi
  4012ba:	48 d1 fe             	sar    %rsi
  4012bd:	74 11                	je     4012d0 <register_tm_clones+0x30>
  4012bf:	b8 00 00 00 00       	mov    $0x0,%eax
  4012c4:	48 85 c0             	test   %rax,%rax
  4012c7:	74 07                	je     4012d0 <register_tm_clones+0x30>
  4012c9:	bf 88 64 40 00       	mov    $0x406488,%edi
  4012ce:	ff e0                	jmpq   *%rax
  4012d0:	c3                   	retq   
  4012d1:	66 66 2e 0f 1f 84 00 	data16 nopw %cs:0x0(%rax,%rax,1)
  4012d8:	00 00 00 00 
  4012dc:	0f 1f 40 00          	nopl   0x0(%rax)

00000000004012e0 <__do_global_dtors_aux>:
  4012e0:	80 3d e1 51 00 00 00 	cmpb   $0x0,0x51e1(%rip)        # 4064c8 <completed.7325>
  4012e7:	75 17                	jne    401300 <__do_global_dtors_aux+0x20>
  4012e9:	55                   	push   %rbp
  4012ea:	48 89 e5             	mov    %rsp,%rbp
  4012ed:	e8 7e ff ff ff       	callq  401270 <deregister_tm_clones>
  4012f2:	c6 05 cf 51 00 00 01 	movb   $0x1,0x51cf(%rip)        # 4064c8 <completed.7325>
  4012f9:	5d                   	pop    %rbp
  4012fa:	c3                   	retq   
  4012fb:	0f 1f 44 00 00       	nopl   0x0(%rax,%rax,1)
  401300:	c3                   	retq   
  401301:	66 66 2e 0f 1f 84 00 	data16 nopw %cs:0x0(%rax,%rax,1)
  401308:	00 00 00 00 
  40130c:	0f 1f 40 00          	nopl   0x0(%rax)

0000000000401310 <frame_dummy>:
  401310:	eb 8e                	jmp    4012a0 <register_tm_clones>

0000000000401312 <usage>:
  401312:	48 83 ec 08          	sub    $0x8,%rsp
  401316:	48 89 fe             	mov    %rdi,%rsi
  401319:	83 3d ec 51 00 00 00 	cmpl   $0x0,0x51ec(%rip)        # 40650c <is_checker>
  401320:	74 4b                	je     40136d <usage+0x5b>
  401322:	48 8d 3d df 1c 00 00 	lea    0x1cdf(%rip),%rdi        # 403008 <_IO_stdin_used+0x8>
  401329:	b8 00 00 00 00       	mov    $0x0,%eax
  40132e:	e8 7d fd ff ff       	callq  4010b0 <printf@plt>
  401333:	48 8d 3d 06 1d 00 00 	lea    0x1d06(%rip),%rdi        # 403040 <_IO_stdin_used+0x40>
  40133a:	e8 41 fd ff ff       	callq  401080 <puts@plt>
  40133f:	48 8d 3d 72 1e 00 00 	lea    0x1e72(%rip),%rdi        # 4031b8 <_IO_stdin_used+0x1b8>
  401346:	e8 35 fd ff ff       	callq  401080 <puts@plt>
  40134b:	48 8d 3d 16 1d 00 00 	lea    0x1d16(%rip),%rdi        # 403068 <_IO_stdin_used+0x68>
  401352:	e8 29 fd ff ff       	callq  401080 <puts@plt>
  401357:	48 8d 3d 74 1e 00 00 	lea    0x1e74(%rip),%rdi        # 4031d2 <_IO_stdin_used+0x1d2>
  40135e:	e8 1d fd ff ff       	callq  401080 <puts@plt>
  401363:	bf 00 00 00 00       	mov    $0x0,%edi
  401368:	e8 83 fe ff ff       	callq  4011f0 <exit@plt>
  40136d:	48 8d 3d 7a 1e 00 00 	lea    0x1e7a(%rip),%rdi        # 4031ee <_IO_stdin_used+0x1ee>
  401374:	b8 00 00 00 00       	mov    $0x0,%eax
  401379:	e8 32 fd ff ff       	callq  4010b0 <printf@plt>
  40137e:	48 8d 3d 0b 1d 00 00 	lea    0x1d0b(%rip),%rdi        # 403090 <_IO_stdin_used+0x90>
  401385:	e8 f6 fc ff ff       	callq  401080 <puts@plt>
  40138a:	48 8d 3d 27 1d 00 00 	lea    0x1d27(%rip),%rdi        # 4030b8 <_IO_stdin_used+0xb8>
  401391:	e8 ea fc ff ff       	callq  401080 <puts@plt>
  401396:	48 8d 3d 6f 1e 00 00 	lea    0x1e6f(%rip),%rdi        # 40320c <_IO_stdin_used+0x20c>
  40139d:	e8 de fc ff ff       	callq  401080 <puts@plt>
  4013a2:	eb bf                	jmp    401363 <usage+0x51>

00000000004013a4 <initialize_target>:
  4013a4:	55                   	push   %rbp
  4013a5:	53                   	push   %rbx
  4013a6:	48 81 ec 08 21 00 00 	sub    $0x2108,%rsp
  4013ad:	89 f5                	mov    %esi,%ebp
  4013af:	89 3d 47 51 00 00    	mov    %edi,0x5147(%rip)        # 4064fc <check_level>
  4013b5:	8b 3d 75 4d 00 00    	mov    0x4d75(%rip),%edi        # 406130 <target_id>
  4013bb:	e8 1b 1b 00 00       	callq  402edb <gencookie>
  4013c0:	89 05 42 51 00 00    	mov    %eax,0x5142(%rip)        # 406508 <cookie>
  4013c6:	89 c7                	mov    %eax,%edi
  4013c8:	e8 0e 1b 00 00       	callq  402edb <gencookie>
  4013cd:	89 05 31 51 00 00    	mov    %eax,0x5131(%rip)        # 406504 <authkey>
  4013d3:	8b 05 57 4d 00 00    	mov    0x4d57(%rip),%eax        # 406130 <target_id>
  4013d9:	8d 78 01             	lea    0x1(%rax),%edi
  4013dc:	e8 6f fc ff ff       	callq  401050 <srandom@plt>
  4013e1:	e8 7a fd ff ff       	callq  401160 <random@plt>
  4013e6:	89 c7                	mov    %eax,%edi
  4013e8:	e8 de 02 00 00       	callq  4016cb <scramble>
  4013ed:	89 c3                	mov    %eax,%ebx
  4013ef:	85 ed                	test   %ebp,%ebp
  4013f1:	75 3d                	jne    401430 <initialize_target+0x8c>
  4013f3:	b8 00 00 00 00       	mov    $0x0,%eax
  4013f8:	01 d8                	add    %ebx,%eax
  4013fa:	0f b7 c0             	movzwl %ax,%eax
  4013fd:	8d 04 c5 00 01 00 00 	lea    0x100(,%rax,8),%eax
  401404:	89 c0                	mov    %eax,%eax
  401406:	48 89 05 73 50 00 00 	mov    %rax,0x5073(%rip)        # 406480 <buf_offset>
  40140d:	c6 05 14 5d 00 00 63 	movb   $0x63,0x5d14(%rip)        # 407128 <target_prefix>
  401414:	83 3d dd 50 00 00 00 	cmpl   $0x0,0x50dd(%rip)        # 4064f8 <notify>
  40141b:	74 09                	je     401426 <initialize_target+0x82>
  40141d:	83 3d e8 50 00 00 00 	cmpl   $0x0,0x50e8(%rip)        # 40650c <is_checker>
  401424:	74 22                	je     401448 <initialize_target+0xa4>
  401426:	48 81 c4 08 21 00 00 	add    $0x2108,%rsp
  40142d:	5b                   	pop    %rbx
  40142e:	5d                   	pop    %rbp
  40142f:	c3                   	retq   
  401430:	bf 00 00 00 00       	mov    $0x0,%edi
  401435:	e8 16 fd ff ff       	callq  401150 <time@plt>
  40143a:	89 c7                	mov    %eax,%edi
  40143c:	e8 0f fc ff ff       	callq  401050 <srandom@plt>
  401441:	e8 1a fd ff ff       	callq  401160 <random@plt>
  401446:	eb b0                	jmp    4013f8 <initialize_target+0x54>
  401448:	48 89 e7             	mov    %rsp,%rdi
  40144b:	be 00 01 00 00       	mov    $0x100,%esi
  401450:	e8 7b fd ff ff       	callq  4011d0 <gethostname@plt>
  401455:	89 c5                	mov    %eax,%ebp
  401457:	85 c0                	test   %eax,%eax
  401459:	75 26                	jne    401481 <initialize_target+0xdd>
  40145b:	89 c3                	mov    %eax,%ebx
  40145d:	48 63 c3             	movslq %ebx,%rax
  401460:	48 8d 15 f9 4c 00 00 	lea    0x4cf9(%rip),%rdx        # 406160 <host_table>
  401467:	48 8b 3c c2          	mov    (%rdx,%rax,8),%rdi
  40146b:	48 85 ff             	test   %rdi,%rdi
  40146e:	74 2c                	je     40149c <initialize_target+0xf8>
  401470:	48 89 e6             	mov    %rsp,%rsi
  401473:	e8 b8 fb ff ff       	callq  401030 <strcasecmp@plt>
  401478:	85 c0                	test   %eax,%eax
  40147a:	74 1b                	je     401497 <initialize_target+0xf3>
  40147c:	83 c3 01             	add    $0x1,%ebx
  40147f:	eb dc                	jmp    40145d <initialize_target+0xb9>
  401481:	48 8d 3d 60 1c 00 00 	lea    0x1c60(%rip),%rdi        # 4030e8 <_IO_stdin_used+0xe8>
  401488:	e8 f3 fb ff ff       	callq  401080 <puts@plt>
  40148d:	bf 08 00 00 00       	mov    $0x8,%edi
  401492:	e8 59 fd ff ff       	callq  4011f0 <exit@plt>
  401497:	bd 01 00 00 00       	mov    $0x1,%ebp
  40149c:	85 ed                	test   %ebp,%ebp
  40149e:	74 38                	je     4014d8 <initialize_target+0x134>
  4014a0:	48 8d bc 24 00 01 00 	lea    0x100(%rsp),%rdi
  4014a7:	00 
  4014a8:	e8 93 17 00 00       	callq  402c40 <init_driver>
  4014ad:	85 c0                	test   %eax,%eax
  4014af:	0f 89 71 ff ff ff    	jns    401426 <initialize_target+0x82>
  4014b5:	48 8d b4 24 00 01 00 	lea    0x100(%rsp),%rsi
  4014bc:	00 
  4014bd:	48 8d 3d 9c 1c 00 00 	lea    0x1c9c(%rip),%rdi        # 403160 <_IO_stdin_used+0x160>
  4014c4:	b8 00 00 00 00       	mov    $0x0,%eax
  4014c9:	e8 e2 fb ff ff       	callq  4010b0 <printf@plt>
  4014ce:	bf 08 00 00 00       	mov    $0x8,%edi
  4014d3:	e8 18 fd ff ff       	callq  4011f0 <exit@plt>
  4014d8:	48 89 e6             	mov    %rsp,%rsi
  4014db:	48 8d 3d 3e 1c 00 00 	lea    0x1c3e(%rip),%rdi        # 403120 <_IO_stdin_used+0x120>
  4014e2:	b8 00 00 00 00       	mov    $0x0,%eax
  4014e7:	e8 c4 fb ff ff       	callq  4010b0 <printf@plt>
  4014ec:	bf 08 00 00 00       	mov    $0x8,%edi
  4014f1:	e8 fa fc ff ff       	callq  4011f0 <exit@plt>

00000000004014f6 <main>:
  4014f6:	41 56                	push   %r14
  4014f8:	41 55                	push   %r13
  4014fa:	41 54                	push   %r12
  4014fc:	55                   	push   %rbp
  4014fd:	53                   	push   %rbx
  4014fe:	89 fd                	mov    %edi,%ebp
  401500:	48 89 f3             	mov    %rsi,%rbx
  401503:	48 c7 c6 12 20 40 00 	mov    $0x402012,%rsi
  40150a:	bf 0b 00 00 00       	mov    $0xb,%edi
  40150f:	e8 ec fb ff ff       	callq  401100 <signal@plt>
  401514:	48 c7 c6 be 1f 40 00 	mov    $0x401fbe,%rsi
  40151b:	bf 07 00 00 00       	mov    $0x7,%edi
  401520:	e8 db fb ff ff       	callq  401100 <signal@plt>
  401525:	48 c7 c6 66 20 40 00 	mov    $0x402066,%rsi
  40152c:	bf 04 00 00 00       	mov    $0x4,%edi
  401531:	e8 ca fb ff ff       	callq  401100 <signal@plt>
  401536:	83 3d cf 4f 00 00 00 	cmpl   $0x0,0x4fcf(%rip)        # 40650c <is_checker>
  40153d:	75 26                	jne    401565 <main+0x6f>
  40153f:	4c 8d 25 e7 1c 00 00 	lea    0x1ce7(%rip),%r12        # 40322d <_IO_stdin_used+0x22d>
  401546:	48 8b 05 53 4f 00 00 	mov    0x4f53(%rip),%rax        # 4064a0 <stdin@@GLIBC_2.2.5>
  40154d:	48 89 05 9c 4f 00 00 	mov    %rax,0x4f9c(%rip)        # 4064f0 <infile>
  401554:	41 bd 00 00 00 00    	mov    $0x0,%r13d
  40155a:	41 be 00 00 00 00    	mov    $0x0,%r14d
  401560:	e9 88 00 00 00       	jmpq   4015ed <main+0xf7>
  401565:	48 c7 c6 ba 20 40 00 	mov    $0x4020ba,%rsi
  40156c:	bf 0e 00 00 00       	mov    $0xe,%edi
  401571:	e8 8a fb ff ff       	callq  401100 <signal@plt>
  401576:	bf 05 00 00 00       	mov    $0x5,%edi
  40157b:	e8 50 fb ff ff       	callq  4010d0 <alarm@plt>
  401580:	4c 8d 25 9e 1c 00 00 	lea    0x1c9e(%rip),%r12        # 403225 <_IO_stdin_used+0x225>
  401587:	eb bd                	jmp    401546 <main+0x50>
  401589:	48 8b 3b             	mov    (%rbx),%rdi
  40158c:	e8 81 fd ff ff       	callq  401312 <usage>
  401591:	48 8d 35 e2 1e 00 00 	lea    0x1ee2(%rip),%rsi        # 40347a <_IO_stdin_used+0x47a>
  401598:	48 8b 3d 09 4f 00 00 	mov    0x4f09(%rip),%rdi        # 4064a8 <optarg@@GLIBC_2.2.5>
  40159f:	e8 fc fb ff ff       	callq  4011a0 <fopen@plt>
  4015a4:	48 89 05 45 4f 00 00 	mov    %rax,0x4f45(%rip)        # 4064f0 <infile>
  4015ab:	48 85 c0             	test   %rax,%rax
  4015ae:	75 3d                	jne    4015ed <main+0xf7>
  4015b0:	48 8b 15 f1 4e 00 00 	mov    0x4ef1(%rip),%rdx        # 4064a8 <optarg@@GLIBC_2.2.5>
  4015b7:	48 8d 35 74 1c 00 00 	lea    0x1c74(%rip),%rsi        # 403232 <_IO_stdin_used+0x232>
  4015be:	48 8b 3d fb 4e 00 00 	mov    0x4efb(%rip),%rdi        # 4064c0 <stderr@@GLIBC_2.2.5>
  4015c5:	e8 56 fb ff ff       	callq  401120 <fprintf@plt>
  4015ca:	b8 01 00 00 00       	mov    $0x1,%eax
  4015cf:	e9 ce 00 00 00       	jmpq   4016a2 <main+0x1ac>
  4015d4:	ba 10 00 00 00       	mov    $0x10,%edx
  4015d9:	be 00 00 00 00       	mov    $0x0,%esi
  4015de:	48 8b 3d c3 4e 00 00 	mov    0x4ec3(%rip),%rdi        # 4064a8 <optarg@@GLIBC_2.2.5>
  4015e5:	e8 d6 fb ff ff       	callq  4011c0 <strtoul@plt>
  4015ea:	41 89 c6             	mov    %eax,%r14d
  4015ed:	4c 89 e2             	mov    %r12,%rdx
  4015f0:	48 89 de             	mov    %rbx,%rsi
  4015f3:	89 ef                	mov    %ebp,%edi
  4015f5:	e8 b6 fb ff ff       	callq  4011b0 <getopt@plt>
  4015fa:	3c ff                	cmp    $0xff,%al
  4015fc:	74 5d                	je     40165b <main+0x165>
  4015fe:	0f be f0             	movsbl %al,%esi
  401601:	83 e8 61             	sub    $0x61,%eax
  401604:	3c 10                	cmp    $0x10,%al
  401606:	77 3a                	ja     401642 <main+0x14c>
  401608:	0f b6 c0             	movzbl %al,%eax
  40160b:	48 8d 15 5e 1c 00 00 	lea    0x1c5e(%rip),%rdx        # 403270 <_IO_stdin_used+0x270>
  401612:	48 63 04 82          	movslq (%rdx,%rax,4),%rax
  401616:	48 01 d0             	add    %rdx,%rax
  401619:	ff e0                	jmpq   *%rax
  40161b:	ba 0a 00 00 00       	mov    $0xa,%edx
  401620:	be 00 00 00 00       	mov    $0x0,%esi
  401625:	48 8b 3d 7c 4e 00 00 	mov    0x4e7c(%rip),%rdi        # 4064a8 <optarg@@GLIBC_2.2.5>
  40162c:	e8 ff fa ff ff       	callq  401130 <strtol@plt>
  401631:	41 89 c5             	mov    %eax,%r13d
  401634:	eb b7                	jmp    4015ed <main+0xf7>
  401636:	c7 05 b8 4e 00 00 00 	movl   $0x0,0x4eb8(%rip)        # 4064f8 <notify>
  40163d:	00 00 00 
  401640:	eb ab                	jmp    4015ed <main+0xf7>
  401642:	48 8d 3d 06 1c 00 00 	lea    0x1c06(%rip),%rdi        # 40324f <_IO_stdin_used+0x24f>
  401649:	b8 00 00 00 00       	mov    $0x0,%eax
  40164e:	e8 5d fa ff ff       	callq  4010b0 <printf@plt>
  401653:	48 8b 3b             	mov    (%rbx),%rdi
  401656:	e8 b7 fc ff ff       	callq  401312 <usage>
  40165b:	be 00 00 00 00       	mov    $0x0,%esi
  401660:	44 89 ef             	mov    %r13d,%edi
  401663:	e8 3c fd ff ff       	callq  4013a4 <initialize_target>
  401668:	83 3d 9d 4e 00 00 00 	cmpl   $0x0,0x4e9d(%rip)        # 40650c <is_checker>
  40166f:	74 09                	je     40167a <main+0x184>
  401671:	44 39 35 8c 4e 00 00 	cmp    %r14d,0x4e8c(%rip)        # 406504 <authkey>
  401678:	75 31                	jne    4016ab <main+0x1b5>
  40167a:	8b 35 88 4e 00 00    	mov    0x4e88(%rip),%esi        # 406508 <cookie>
  401680:	48 8d 3d db 1b 00 00 	lea    0x1bdb(%rip),%rdi        # 403262 <_IO_stdin_used+0x262>
  401687:	b8 00 00 00 00       	mov    $0x0,%eax
  40168c:	e8 1f fa ff ff       	callq  4010b0 <printf@plt>
  401691:	48 8b 3d e8 4d 00 00 	mov    0x4de8(%rip),%rdi        # 406480 <buf_offset>
  401698:	e8 f8 0a 00 00       	callq  402195 <stable_launch>
  40169d:	b8 00 00 00 00       	mov    $0x0,%eax
  4016a2:	5b                   	pop    %rbx
  4016a3:	5d                   	pop    %rbp
  4016a4:	41 5c                	pop    %r12
  4016a6:	41 5d                	pop    %r13
  4016a8:	41 5e                	pop    %r14
  4016aa:	c3                   	retq   
  4016ab:	44 89 f6             	mov    %r14d,%esi
  4016ae:	48 8d 3d d3 1a 00 00 	lea    0x1ad3(%rip),%rdi        # 403188 <_IO_stdin_used+0x188>
  4016b5:	b8 00 00 00 00       	mov    $0x0,%eax
  4016ba:	e8 f1 f9 ff ff       	callq  4010b0 <printf@plt>
  4016bf:	b8 00 00 00 00       	mov    $0x0,%eax
  4016c4:	e8 e2 06 00 00       	callq  401dab <check_fail>
  4016c9:	eb af                	jmp    40167a <main+0x184>

00000000004016cb <scramble>:
  4016cb:	b8 00 00 00 00       	mov    $0x0,%eax
  4016d0:	83 f8 09             	cmp    $0x9,%eax
  4016d3:	77 13                	ja     4016e8 <scramble+0x1d>
  4016d5:	69 d0 b8 dd 00 00    	imul   $0xddb8,%eax,%edx
  4016db:	01 fa                	add    %edi,%edx
  4016dd:	89 c1                	mov    %eax,%ecx
  4016df:	89 54 8c d0          	mov    %edx,-0x30(%rsp,%rcx,4)
  4016e3:	83 c0 01             	add    $0x1,%eax
  4016e6:	eb e8                	jmp    4016d0 <scramble+0x5>
  4016e8:	8b 44 24 e8          	mov    -0x18(%rsp),%eax
  4016ec:	69 c0 e8 a4 00 00    	imul   $0xa4e8,%eax,%eax
  4016f2:	89 44 24 e8          	mov    %eax,-0x18(%rsp)
  4016f6:	8b 44 24 f0          	mov    -0x10(%rsp),%eax
  4016fa:	69 c0 cd 3f 00 00    	imul   $0x3fcd,%eax,%eax
  401700:	89 44 24 f0          	mov    %eax,-0x10(%rsp)
  401704:	8b 44 24 f0          	mov    -0x10(%rsp),%eax
  401708:	69 c0 23 d0 00 00    	imul   $0xd023,%eax,%eax
  40170e:	89 44 24 f0          	mov    %eax,-0x10(%rsp)
  401712:	8b 44 24 e0          	mov    -0x20(%rsp),%eax
  401716:	69 c0 54 27 00 00    	imul   $0x2754,%eax,%eax
  40171c:	89 44 24 e0          	mov    %eax,-0x20(%rsp)
  401720:	8b 44 24 dc          	mov    -0x24(%rsp),%eax
  401724:	69 c0 9a 9a 00 00    	imul   $0x9a9a,%eax,%eax
  40172a:	89 44 24 dc          	mov    %eax,-0x24(%rsp)
  40172e:	8b 44 24 d8          	mov    -0x28(%rsp),%eax
  401732:	69 c0 3b 81 00 00    	imul   $0x813b,%eax,%eax
  401738:	89 44 24 d8          	mov    %eax,-0x28(%rsp)
  40173c:	8b 44 24 e4          	mov    -0x1c(%rsp),%eax
  401740:	69 c0 34 8e 00 00    	imul   $0x8e34,%eax,%eax
  401746:	89 44 24 e4          	mov    %eax,-0x1c(%rsp)
  40174a:	8b 44 24 ec          	mov    -0x14(%rsp),%eax
  40174e:	69 c0 cb fe 00 00    	imul   $0xfecb,%eax,%eax
  401754:	89 44 24 ec          	mov    %eax,-0x14(%rsp)
  401758:	8b 44 24 e8          	mov    -0x18(%rsp),%eax
  40175c:	69 c0 2d 95 00 00    	imul   $0x952d,%eax,%eax
  401762:	89 44 24 e8          	mov    %eax,-0x18(%rsp)
  401766:	8b 44 24 d0          	mov    -0x30(%rsp),%eax
  40176a:	69 c0 22 d4 00 00    	imul   $0xd422,%eax,%eax
  401770:	89 44 24 d0          	mov    %eax,-0x30(%rsp)
  401774:	8b 44 24 dc          	mov    -0x24(%rsp),%eax
  401778:	69 c0 06 7a 00 00    	imul   $0x7a06,%eax,%eax
  40177e:	89 44 24 dc          	mov    %eax,-0x24(%rsp)
  401782:	8b 44 24 f0          	mov    -0x10(%rsp),%eax
  401786:	69 c0 56 89 00 00    	imul   $0x8956,%eax,%eax
  40178c:	89 44 24 f0          	mov    %eax,-0x10(%rsp)
  401790:	8b 44 24 f4          	mov    -0xc(%rsp),%eax
  401794:	69 c0 20 76 00 00    	imul   $0x7620,%eax,%eax
  40179a:	89 44 24 f4          	mov    %eax,-0xc(%rsp)
  40179e:	8b 44 24 e0          	mov    -0x20(%rsp),%eax
  4017a2:	69 c0 8b c2 00 00    	imul   $0xc28b,%eax,%eax
  4017a8:	89 44 24 e0          	mov    %eax,-0x20(%rsp)
  4017ac:	8b 44 24 f4          	mov    -0xc(%rsp),%eax
  4017b0:	69 c0 da 79 00 00    	imul   $0x79da,%eax,%eax
  4017b6:	89 44 24 f4          	mov    %eax,-0xc(%rsp)
  4017ba:	8b 44 24 d4          	mov    -0x2c(%rsp),%eax
  4017be:	69 c0 d6 97 00 00    	imul   $0x97d6,%eax,%eax
  4017c4:	89 44 24 d4          	mov    %eax,-0x2c(%rsp)
  4017c8:	8b 44 24 d4          	mov    -0x2c(%rsp),%eax
  4017cc:	69 c0 62 3a 00 00    	imul   $0x3a62,%eax,%eax
  4017d2:	89 44 24 d4          	mov    %eax,-0x2c(%rsp)
  4017d6:	8b 44 24 e4          	mov    -0x1c(%rsp),%eax
  4017da:	69 c0 f1 d6 00 00    	imul   $0xd6f1,%eax,%eax
  4017e0:	89 44 24 e4          	mov    %eax,-0x1c(%rsp)
  4017e4:	8b 44 24 ec          	mov    -0x14(%rsp),%eax
  4017e8:	69 c0 81 93 00 00    	imul   $0x9381,%eax,%eax
  4017ee:	89 44 24 ec          	mov    %eax,-0x14(%rsp)
  4017f2:	8b 44 24 f0          	mov    -0x10(%rsp),%eax
  4017f6:	69 c0 fb c8 00 00    	imul   $0xc8fb,%eax,%eax
  4017fc:	89 44 24 f0          	mov    %eax,-0x10(%rsp)
  401800:	8b 44 24 d8          	mov    -0x28(%rsp),%eax
  401804:	69 c0 37 86 00 00    	imul   $0x8637,%eax,%eax
  40180a:	89 44 24 d8          	mov    %eax,-0x28(%rsp)
  40180e:	8b 44 24 e4          	mov    -0x1c(%rsp),%eax
  401812:	69 c0 36 6c 00 00    	imul   $0x6c36,%eax,%eax
  401818:	89 44 24 e4          	mov    %eax,-0x1c(%rsp)
  40181c:	8b 44 24 d4          	mov    -0x2c(%rsp),%eax
  401820:	69 c0 78 20 00 00    	imul   $0x2078,%eax,%eax
  401826:	89 44 24 d4          	mov    %eax,-0x2c(%rsp)
  40182a:	8b 44 24 d4          	mov    -0x2c(%rsp),%eax
  40182e:	69 c0 08 98 00 00    	imul   $0x9808,%eax,%eax
  401834:	89 44 24 d4          	mov    %eax,-0x2c(%rsp)
  401838:	8b 44 24 d8          	mov    -0x28(%rsp),%eax
  40183c:	69 c0 bd 16 00 00    	imul   $0x16bd,%eax,%eax
  401842:	89 44 24 d8          	mov    %eax,-0x28(%rsp)
  401846:	8b 44 24 d8          	mov    -0x28(%rsp),%eax
  40184a:	69 c0 9b 20 00 00    	imul   $0x209b,%eax,%eax
  401850:	89 44 24 d8          	mov    %eax,-0x28(%rsp)
  401854:	8b 44 24 f4          	mov    -0xc(%rsp),%eax
  401858:	69 c0 16 3b 00 00    	imul   $0x3b16,%eax,%eax
  40185e:	89 44 24 f4          	mov    %eax,-0xc(%rsp)
  401862:	8b 44 24 e0          	mov    -0x20(%rsp),%eax
  401866:	69 c0 42 c3 00 00    	imul   $0xc342,%eax,%eax
  40186c:	89 44 24 e0          	mov    %eax,-0x20(%rsp)
  401870:	8b 44 24 d0          	mov    -0x30(%rsp),%eax
  401874:	69 c0 0c 2d 00 00    	imul   $0x2d0c,%eax,%eax
  40187a:	89 44 24 d0          	mov    %eax,-0x30(%rsp)
  40187e:	8b 44 24 dc          	mov    -0x24(%rsp),%eax
  401882:	69 c0 54 6b 00 00    	imul   $0x6b54,%eax,%eax
  401888:	89 44 24 dc          	mov    %eax,-0x24(%rsp)
  40188c:	8b 44 24 e8          	mov    -0x18(%rsp),%eax
  401890:	69 c0 0b bd 00 00    	imul   $0xbd0b,%eax,%eax
  401896:	89 44 24 e8          	mov    %eax,-0x18(%rsp)
  40189a:	8b 44 24 d4          	mov    -0x2c(%rsp),%eax
  40189e:	69 c0 aa c5 00 00    	imul   $0xc5aa,%eax,%eax
  4018a4:	89 44 24 d4          	mov    %eax,-0x2c(%rsp)
  4018a8:	8b 44 24 e4          	mov    -0x1c(%rsp),%eax
  4018ac:	69 c0 cd da 00 00    	imul   $0xdacd,%eax,%eax
  4018b2:	89 44 24 e4          	mov    %eax,-0x1c(%rsp)
  4018b6:	8b 44 24 d4          	mov    -0x2c(%rsp),%eax
  4018ba:	69 c0 f2 01 00 00    	imul   $0x1f2,%eax,%eax
  4018c0:	89 44 24 d4          	mov    %eax,-0x2c(%rsp)
  4018c4:	8b 44 24 e4          	mov    -0x1c(%rsp),%eax
  4018c8:	69 c0 e1 9a 00 00    	imul   $0x9ae1,%eax,%eax
  4018ce:	89 44 24 e4          	mov    %eax,-0x1c(%rsp)
  4018d2:	8b 44 24 f0          	mov    -0x10(%rsp),%eax
  4018d6:	69 c0 6b 9c 00 00    	imul   $0x9c6b,%eax,%eax
  4018dc:	89 44 24 f0          	mov    %eax,-0x10(%rsp)
  4018e0:	8b 44 24 d4          	mov    -0x2c(%rsp),%eax
  4018e4:	69 c0 24 15 00 00    	imul   $0x1524,%eax,%eax
  4018ea:	89 44 24 d4          	mov    %eax,-0x2c(%rsp)
  4018ee:	8b 44 24 d0          	mov    -0x30(%rsp),%eax
  4018f2:	69 c0 83 35 00 00    	imul   $0x3583,%eax,%eax
  4018f8:	89 44 24 d0          	mov    %eax,-0x30(%rsp)
  4018fc:	8b 44 24 f4          	mov    -0xc(%rsp),%eax
  401900:	69 c0 a3 73 00 00    	imul   $0x73a3,%eax,%eax
  401906:	89 44 24 f4          	mov    %eax,-0xc(%rsp)
  40190a:	8b 44 24 d8          	mov    -0x28(%rsp),%eax
  40190e:	69 c0 41 eb 00 00    	imul   $0xeb41,%eax,%eax
  401914:	89 44 24 d8          	mov    %eax,-0x28(%rsp)
  401918:	8b 44 24 e0          	mov    -0x20(%rsp),%eax
  40191c:	69 c0 b5 39 00 00    	imul   $0x39b5,%eax,%eax
  401922:	89 44 24 e0          	mov    %eax,-0x20(%rsp)
  401926:	8b 44 24 d4          	mov    -0x2c(%rsp),%eax
  40192a:	69 c0 24 1b 00 00    	imul   $0x1b24,%eax,%eax
  401930:	89 44 24 d4          	mov    %eax,-0x2c(%rsp)
  401934:	8b 44 24 ec          	mov    -0x14(%rsp),%eax
  401938:	69 c0 cd b5 00 00    	imul   $0xb5cd,%eax,%eax
  40193e:	89 44 24 ec          	mov    %eax,-0x14(%rsp)
  401942:	8b 44 24 e0          	mov    -0x20(%rsp),%eax
  401946:	69 c0 01 26 00 00    	imul   $0x2601,%eax,%eax
  40194c:	89 44 24 e0          	mov    %eax,-0x20(%rsp)
  401950:	8b 44 24 ec          	mov    -0x14(%rsp),%eax
  401954:	69 c0 35 64 00 00    	imul   $0x6435,%eax,%eax
  40195a:	89 44 24 ec          	mov    %eax,-0x14(%rsp)
  40195e:	8b 44 24 d8          	mov    -0x28(%rsp),%eax
  401962:	69 c0 c1 89 00 00    	imul   $0x89c1,%eax,%eax
  401968:	89 44 24 d8          	mov    %eax,-0x28(%rsp)
  40196c:	8b 44 24 e4          	mov    -0x1c(%rsp),%eax
  401970:	69 c0 7f 94 00 00    	imul   $0x947f,%eax,%eax
  401976:	89 44 24 e4          	mov    %eax,-0x1c(%rsp)
  40197a:	8b 44 24 e4          	mov    -0x1c(%rsp),%eax
  40197e:	69 c0 ae 18 00 00    	imul   $0x18ae,%eax,%eax
  401984:	89 44 24 e4          	mov    %eax,-0x1c(%rsp)
  401988:	8b 44 24 d0          	mov    -0x30(%rsp),%eax
  40198c:	69 c0 06 ec 00 00    	imul   $0xec06,%eax,%eax
  401992:	89 44 24 d0          	mov    %eax,-0x30(%rsp)
  401996:	8b 44 24 e4          	mov    -0x1c(%rsp),%eax
  40199a:	69 c0 9c dd 00 00    	imul   $0xdd9c,%eax,%eax
  4019a0:	89 44 24 e4          	mov    %eax,-0x1c(%rsp)
  4019a4:	8b 44 24 e4          	mov    -0x1c(%rsp),%eax
  4019a8:	69 c0 8e e5 00 00    	imul   $0xe58e,%eax,%eax
  4019ae:	89 44 24 e4          	mov    %eax,-0x1c(%rsp)
  4019b2:	8b 44 24 d0          	mov    -0x30(%rsp),%eax
  4019b6:	69 c0 ff a7 00 00    	imul   $0xa7ff,%eax,%eax
  4019bc:	89 44 24 d0          	mov    %eax,-0x30(%rsp)
  4019c0:	8b 44 24 d0          	mov    -0x30(%rsp),%eax
  4019c4:	69 c0 a8 82 00 00    	imul   $0x82a8,%eax,%eax
  4019ca:	89 44 24 d0          	mov    %eax,-0x30(%rsp)
  4019ce:	8b 44 24 d4          	mov    -0x2c(%rsp),%eax
  4019d2:	69 c0 4e 30 00 00    	imul   $0x304e,%eax,%eax
  4019d8:	89 44 24 d4          	mov    %eax,-0x2c(%rsp)
  4019dc:	8b 44 24 dc          	mov    -0x24(%rsp),%eax
  4019e0:	69 c0 0d ab 00 00    	imul   $0xab0d,%eax,%eax
  4019e6:	89 44 24 dc          	mov    %eax,-0x24(%rsp)
  4019ea:	8b 44 24 e4          	mov    -0x1c(%rsp),%eax
  4019ee:	69 c0 ac 80 00 00    	imul   $0x80ac,%eax,%eax
  4019f4:	89 44 24 e4          	mov    %eax,-0x1c(%rsp)
  4019f8:	8b 44 24 d0          	mov    -0x30(%rsp),%eax
  4019fc:	69 c0 6b 27 00 00    	imul   $0x276b,%eax,%eax
  401a02:	89 44 24 d0          	mov    %eax,-0x30(%rsp)
  401a06:	8b 44 24 e0          	mov    -0x20(%rsp),%eax
  401a0a:	69 c0 8e 59 00 00    	imul   $0x598e,%eax,%eax
  401a10:	89 44 24 e0          	mov    %eax,-0x20(%rsp)
  401a14:	8b 44 24 e8          	mov    -0x18(%rsp),%eax
  401a18:	69 c0 37 7a 00 00    	imul   $0x7a37,%eax,%eax
  401a1e:	89 44 24 e8          	mov    %eax,-0x18(%rsp)
  401a22:	8b 44 24 f0          	mov    -0x10(%rsp),%eax
  401a26:	69 c0 12 c0 00 00    	imul   $0xc012,%eax,%eax
  401a2c:	89 44 24 f0          	mov    %eax,-0x10(%rsp)
  401a30:	8b 44 24 f4          	mov    -0xc(%rsp),%eax
  401a34:	69 c0 e5 10 00 00    	imul   $0x10e5,%eax,%eax
  401a3a:	89 44 24 f4          	mov    %eax,-0xc(%rsp)
  401a3e:	8b 44 24 d4          	mov    -0x2c(%rsp),%eax
  401a42:	69 c0 ad ff 00 00    	imul   $0xffad,%eax,%eax
  401a48:	89 44 24 d4          	mov    %eax,-0x2c(%rsp)
  401a4c:	8b 44 24 ec          	mov    -0x14(%rsp),%eax
  401a50:	69 c0 3e 99 00 00    	imul   $0x993e,%eax,%eax
  401a56:	89 44 24 ec          	mov    %eax,-0x14(%rsp)
  401a5a:	8b 44 24 ec          	mov    -0x14(%rsp),%eax
  401a5e:	69 c0 b2 14 00 00    	imul   $0x14b2,%eax,%eax
  401a64:	89 44 24 ec          	mov    %eax,-0x14(%rsp)
  401a68:	8b 44 24 d8          	mov    -0x28(%rsp),%eax
  401a6c:	69 c0 fb 32 00 00    	imul   $0x32fb,%eax,%eax
  401a72:	89 44 24 d8          	mov    %eax,-0x28(%rsp)
  401a76:	8b 44 24 ec          	mov    -0x14(%rsp),%eax
  401a7a:	69 c0 2c 0c 00 00    	imul   $0xc2c,%eax,%eax
  401a80:	89 44 24 ec          	mov    %eax,-0x14(%rsp)
  401a84:	8b 44 24 d0          	mov    -0x30(%rsp),%eax
  401a88:	69 c0 55 6c 00 00    	imul   $0x6c55,%eax,%eax
  401a8e:	89 44 24 d0          	mov    %eax,-0x30(%rsp)
  401a92:	8b 44 24 ec          	mov    -0x14(%rsp),%eax
  401a96:	69 c0 3b 13 00 00    	imul   $0x133b,%eax,%eax
  401a9c:	89 44 24 ec          	mov    %eax,-0x14(%rsp)
  401aa0:	8b 44 24 f4          	mov    -0xc(%rsp),%eax
  401aa4:	69 c0 ae 91 00 00    	imul   $0x91ae,%eax,%eax
  401aaa:	89 44 24 f4          	mov    %eax,-0xc(%rsp)
  401aae:	8b 44 24 e8          	mov    -0x18(%rsp),%eax
  401ab2:	69 c0 49 e5 00 00    	imul   $0xe549,%eax,%eax
  401ab8:	89 44 24 e8          	mov    %eax,-0x18(%rsp)
  401abc:	8b 44 24 e4          	mov    -0x1c(%rsp),%eax
  401ac0:	69 c0 18 5f 00 00    	imul   $0x5f18,%eax,%eax
  401ac6:	89 44 24 e4          	mov    %eax,-0x1c(%rsp)
  401aca:	8b 44 24 e4          	mov    -0x1c(%rsp),%eax
  401ace:	69 c0 7f 21 00 00    	imul   $0x217f,%eax,%eax
  401ad4:	89 44 24 e4          	mov    %eax,-0x1c(%rsp)
  401ad8:	8b 44 24 d4          	mov    -0x2c(%rsp),%eax
  401adc:	69 c0 c5 01 00 00    	imul   $0x1c5,%eax,%eax
  401ae2:	89 44 24 d4          	mov    %eax,-0x2c(%rsp)
  401ae6:	8b 44 24 ec          	mov    -0x14(%rsp),%eax
  401aea:	69 c0 bc 63 00 00    	imul   $0x63bc,%eax,%eax
  401af0:	89 44 24 ec          	mov    %eax,-0x14(%rsp)
  401af4:	8b 44 24 d0          	mov    -0x30(%rsp),%eax
  401af8:	69 c0 9d fa 00 00    	imul   $0xfa9d,%eax,%eax
  401afe:	89 44 24 d0          	mov    %eax,-0x30(%rsp)
  401b02:	8b 44 24 e4          	mov    -0x1c(%rsp),%eax
  401b06:	69 c0 69 5a 00 00    	imul   $0x5a69,%eax,%eax
  401b0c:	89 44 24 e4          	mov    %eax,-0x1c(%rsp)
  401b10:	8b 44 24 d0          	mov    -0x30(%rsp),%eax
  401b14:	69 c0 a2 6d 00 00    	imul   $0x6da2,%eax,%eax
  401b1a:	89 44 24 d0          	mov    %eax,-0x30(%rsp)
  401b1e:	8b 44 24 f0          	mov    -0x10(%rsp),%eax
  401b22:	69 c0 e8 b0 00 00    	imul   $0xb0e8,%eax,%eax
  401b28:	89 44 24 f0          	mov    %eax,-0x10(%rsp)
  401b2c:	8b 44 24 e0          	mov    -0x20(%rsp),%eax
  401b30:	69 c0 71 72 00 00    	imul   $0x7271,%eax,%eax
  401b36:	89 44 24 e0          	mov    %eax,-0x20(%rsp)
  401b3a:	8b 44 24 f4          	mov    -0xc(%rsp),%eax
  401b3e:	69 c0 25 8c 00 00    	imul   $0x8c25,%eax,%eax
  401b44:	89 44 24 f4          	mov    %eax,-0xc(%rsp)
  401b48:	8b 44 24 d0          	mov    -0x30(%rsp),%eax
  401b4c:	69 c0 e8 b7 00 00    	imul   $0xb7e8,%eax,%eax
  401b52:	89 44 24 d0          	mov    %eax,-0x30(%rsp)
  401b56:	8b 44 24 ec          	mov    -0x14(%rsp),%eax
  401b5a:	69 c0 f6 bd 00 00    	imul   $0xbdf6,%eax,%eax
  401b60:	89 44 24 ec          	mov    %eax,-0x14(%rsp)
  401b64:	8b 44 24 f0          	mov    -0x10(%rsp),%eax
  401b68:	69 c0 7e 4c 00 00    	imul   $0x4c7e,%eax,%eax
  401b6e:	89 44 24 f0          	mov    %eax,-0x10(%rsp)
  401b72:	ba 00 00 00 00       	mov    $0x0,%edx
  401b77:	b8 00 00 00 00       	mov    $0x0,%eax
  401b7c:	83 fa 09             	cmp    $0x9,%edx
  401b7f:	77 0d                	ja     401b8e <scramble+0x4c3>
  401b81:	89 d1                	mov    %edx,%ecx
  401b83:	8b 4c 8c d0          	mov    -0x30(%rsp,%rcx,4),%ecx
  401b87:	01 c8                	add    %ecx,%eax
  401b89:	83 c2 01             	add    $0x1,%edx
  401b8c:	eb ee                	jmp    401b7c <scramble+0x4b1>
  401b8e:	c3                   	retq   

0000000000401b8f <getbuf>:
  401b8f:	48 83 ec 28          	sub    $0x28,%rsp
  401b93:	48 89 e7             	mov    %rsp,%rdi
  401b96:	e8 43 02 00 00       	callq  401dde <Gets>
  401b9b:	b8 01 00 00 00       	mov    $0x1,%eax
  401ba0:	48 83 c4 28          	add    $0x28,%rsp
  401ba4:	c3                   	retq   

0000000000401ba5 <touch1>:
  401ba5:	48 83 ec 08          	sub    $0x8,%rsp
  401ba9:	c7 05 4d 49 00 00 01 	movl   $0x1,0x494d(%rip)        # 406500 <vlevel>
  401bb0:	00 00 00 
  401bb3:	48 8d 3d 5d 17 00 00 	lea    0x175d(%rip),%rdi        # 403317 <_IO_stdin_used+0x317>
  401bba:	e8 c1 f4 ff ff       	callq  401080 <puts@plt>
  401bbf:	bf 01 00 00 00       	mov    $0x1,%edi
  401bc4:	e8 0f 03 00 00       	callq  401ed8 <validate>
  401bc9:	bf 00 00 00 00       	mov    $0x0,%edi
  401bce:	e8 1d f6 ff ff       	callq  4011f0 <exit@plt>

0000000000401bd3 <touch2>:
  401bd3:	48 83 ec 08          	sub    $0x8,%rsp
  401bd7:	89 fe                	mov    %edi,%esi
  401bd9:	c7 05 1d 49 00 00 02 	movl   $0x2,0x491d(%rip)        # 406500 <vlevel>
  401be0:	00 00 00 
  401be3:	39 3d 1f 49 00 00    	cmp    %edi,0x491f(%rip)        # 406508 <cookie>
  401be9:	74 25                	je     401c10 <touch2+0x3d>
  401beb:	48 8d 3d 76 17 00 00 	lea    0x1776(%rip),%rdi        # 403368 <_IO_stdin_used+0x368>
  401bf2:	b8 00 00 00 00       	mov    $0x0,%eax
  401bf7:	e8 b4 f4 ff ff       	callq  4010b0 <printf@plt>
  401bfc:	bf 02 00 00 00       	mov    $0x2,%edi
  401c01:	e8 90 03 00 00       	callq  401f96 <fail>
  401c06:	bf 00 00 00 00       	mov    $0x0,%edi
  401c0b:	e8 e0 f5 ff ff       	callq  4011f0 <exit@plt>
  401c10:	48 8d 3d 29 17 00 00 	lea    0x1729(%rip),%rdi        # 403340 <_IO_stdin_used+0x340>
  401c17:	b8 00 00 00 00       	mov    $0x0,%eax
  401c1c:	e8 8f f4 ff ff       	callq  4010b0 <printf@plt>
  401c21:	bf 02 00 00 00       	mov    $0x2,%edi
  401c26:	e8 ad 02 00 00       	callq  401ed8 <validate>
  401c2b:	eb d9                	jmp    401c06 <touch2+0x33>

0000000000401c2d <hexmatch>:
  401c2d:	41 54                	push   %r12
  401c2f:	55                   	push   %rbp
  401c30:	53                   	push   %rbx
  401c31:	48 83 ec 70          	sub    $0x70,%rsp
  401c35:	89 fd                	mov    %edi,%ebp
  401c37:	48 89 f3             	mov    %rsi,%rbx
  401c3a:	e8 21 f5 ff ff       	callq  401160 <random@plt>
  401c3f:	48 89 c1             	mov    %rax,%rcx
  401c42:	48 ba 0b d7 a3 70 3d 	movabs $0xa3d70a3d70a3d70b,%rdx
  401c49:	0a d7 a3 
  401c4c:	48 f7 ea             	imul   %rdx
  401c4f:	48 01 ca             	add    %rcx,%rdx
  401c52:	48 c1 fa 06          	sar    $0x6,%rdx
  401c56:	48 89 c8             	mov    %rcx,%rax
  401c59:	48 c1 f8 3f          	sar    $0x3f,%rax
  401c5d:	48 29 c2             	sub    %rax,%rdx
  401c60:	48 8d 04 92          	lea    (%rdx,%rdx,4),%rax
  401c64:	48 8d 14 80          	lea    (%rax,%rax,4),%rdx
  401c68:	48 8d 04 95 00 00 00 	lea    0x0(,%rdx,4),%rax
  401c6f:	00 
  401c70:	48 29 c1             	sub    %rax,%rcx
  401c73:	4c 8d 24 0c          	lea    (%rsp,%rcx,1),%r12
  401c77:	89 ea                	mov    %ebp,%edx
  401c79:	48 8d 35 b4 16 00 00 	lea    0x16b4(%rip),%rsi        # 403334 <_IO_stdin_used+0x334>
  401c80:	4c 89 e7             	mov    %r12,%rdi
  401c83:	b8 00 00 00 00       	mov    $0x0,%eax
  401c88:	e8 53 f5 ff ff       	callq  4011e0 <sprintf@plt>
  401c8d:	ba 09 00 00 00       	mov    $0x9,%edx
  401c92:	4c 89 e6             	mov    %r12,%rsi
  401c95:	48 89 df             	mov    %rbx,%rdi
  401c98:	e8 c3 f3 ff ff       	callq  401060 <strncmp@plt>
  401c9d:	85 c0                	test   %eax,%eax
  401c9f:	0f 94 c0             	sete   %al
  401ca2:	0f b6 c0             	movzbl %al,%eax
  401ca5:	48 83 c4 70          	add    $0x70,%rsp
  401ca9:	5b                   	pop    %rbx
  401caa:	5d                   	pop    %rbp
  401cab:	41 5c                	pop    %r12
  401cad:	c3                   	retq   

0000000000401cae <touch3>:
  401cae:	53                   	push   %rbx
  401caf:	48 89 fb             	mov    %rdi,%rbx
  401cb2:	c7 05 44 48 00 00 03 	movl   $0x3,0x4844(%rip)        # 406500 <vlevel>
  401cb9:	00 00 00 
  401cbc:	48 89 fe             	mov    %rdi,%rsi
  401cbf:	8b 3d 43 48 00 00    	mov    0x4843(%rip),%edi        # 406508 <cookie>
  401cc5:	e8 63 ff ff ff       	callq  401c2d <hexmatch>
  401cca:	85 c0                	test   %eax,%eax
  401ccc:	74 28                	je     401cf6 <touch3+0x48>
  401cce:	48 89 de             	mov    %rbx,%rsi
  401cd1:	48 8d 3d b8 16 00 00 	lea    0x16b8(%rip),%rdi        # 403390 <_IO_stdin_used+0x390>
  401cd8:	b8 00 00 00 00       	mov    $0x0,%eax
  401cdd:	e8 ce f3 ff ff       	callq  4010b0 <printf@plt>
  401ce2:	bf 03 00 00 00       	mov    $0x3,%edi
  401ce7:	e8 ec 01 00 00       	callq  401ed8 <validate>
  401cec:	bf 00 00 00 00       	mov    $0x0,%edi
  401cf1:	e8 fa f4 ff ff       	callq  4011f0 <exit@plt>
  401cf6:	48 89 de             	mov    %rbx,%rsi
  401cf9:	48 8d 3d b8 16 00 00 	lea    0x16b8(%rip),%rdi        # 4033b8 <_IO_stdin_used+0x3b8>
  401d00:	b8 00 00 00 00       	mov    $0x0,%eax
  401d05:	e8 a6 f3 ff ff       	callq  4010b0 <printf@plt>
  401d0a:	bf 03 00 00 00       	mov    $0x3,%edi
  401d0f:	e8 82 02 00 00       	callq  401f96 <fail>
  401d14:	eb d6                	jmp    401cec <touch3+0x3e>

0000000000401d16 <test>:
  401d16:	48 83 ec 08          	sub    $0x8,%rsp
  401d1a:	b8 00 00 00 00       	mov    $0x0,%eax
  401d1f:	e8 6b fe ff ff       	callq  401b8f <getbuf>
  401d24:	89 c6                	mov    %eax,%esi
  401d26:	48 8d 3d b3 16 00 00 	lea    0x16b3(%rip),%rdi        # 4033e0 <_IO_stdin_used+0x3e0>
  401d2d:	b8 00 00 00 00       	mov    $0x0,%eax
  401d32:	e8 79 f3 ff ff       	callq  4010b0 <printf@plt>
  401d37:	48 83 c4 08          	add    $0x8,%rsp
  401d3b:	c3                   	retq   

0000000000401d3c <save_char>:
  401d3c:	8b 05 e2 53 00 00    	mov    0x53e2(%rip),%eax        # 407124 <gets_cnt>
  401d42:	3d ff 03 00 00       	cmp    $0x3ff,%eax
  401d47:	7f 4a                	jg     401d93 <save_char+0x57>
  401d49:	89 f9                	mov    %edi,%ecx
  401d4b:	c0 e9 04             	shr    $0x4,%cl
  401d4e:	8d 14 40             	lea    (%rax,%rax,2),%edx
  401d51:	4c 8d 05 f8 18 00 00 	lea    0x18f8(%rip),%r8        # 403650 <trans_char>
  401d58:	83 e1 0f             	and    $0xf,%ecx
  401d5b:	45 0f b6 0c 08       	movzbl (%r8,%rcx,1),%r9d
  401d60:	48 8d 0d b9 47 00 00 	lea    0x47b9(%rip),%rcx        # 406520 <gets_buf>
  401d67:	48 63 f2             	movslq %edx,%rsi
  401d6a:	44 88 0c 31          	mov    %r9b,(%rcx,%rsi,1)
  401d6e:	8d 72 01             	lea    0x1(%rdx),%esi
  401d71:	83 e7 0f             	and    $0xf,%edi
  401d74:	41 0f b6 3c 38       	movzbl (%r8,%rdi,1),%edi
  401d79:	48 63 f6             	movslq %esi,%rsi
  401d7c:	40 88 3c 31          	mov    %dil,(%rcx,%rsi,1)
  401d80:	83 c2 02             	add    $0x2,%edx
  401d83:	48 63 d2             	movslq %edx,%rdx
  401d86:	c6 04 11 20          	movb   $0x20,(%rcx,%rdx,1)
  401d8a:	83 c0 01             	add    $0x1,%eax
  401d8d:	89 05 91 53 00 00    	mov    %eax,0x5391(%rip)        # 407124 <gets_cnt>
  401d93:	c3                   	retq   

0000000000401d94 <save_term>:
  401d94:	8b 05 8a 53 00 00    	mov    0x538a(%rip),%eax        # 407124 <gets_cnt>
  401d9a:	8d 04 40             	lea    (%rax,%rax,2),%eax
  401d9d:	48 98                	cltq   
  401d9f:	48 8d 15 7a 47 00 00 	lea    0x477a(%rip),%rdx        # 406520 <gets_buf>
  401da6:	c6 04 02 00          	movb   $0x0,(%rdx,%rax,1)
  401daa:	c3                   	retq   

0000000000401dab <check_fail>:
  401dab:	48 83 ec 08          	sub    $0x8,%rsp
  401daf:	0f be 35 72 53 00 00 	movsbl 0x5372(%rip),%esi        # 407128 <target_prefix>
  401db6:	48 8d 0d 63 47 00 00 	lea    0x4763(%rip),%rcx        # 406520 <gets_buf>
  401dbd:	8b 15 39 47 00 00    	mov    0x4739(%rip),%edx        # 4064fc <check_level>
  401dc3:	48 8d 3d 39 16 00 00 	lea    0x1639(%rip),%rdi        # 403403 <_IO_stdin_used+0x403>
  401dca:	b8 00 00 00 00       	mov    $0x0,%eax
  401dcf:	e8 dc f2 ff ff       	callq  4010b0 <printf@plt>
  401dd4:	bf 01 00 00 00       	mov    $0x1,%edi
  401dd9:	e8 12 f4 ff ff       	callq  4011f0 <exit@plt>

0000000000401dde <Gets>:
  401dde:	41 54                	push   %r12
  401de0:	55                   	push   %rbp
  401de1:	53                   	push   %rbx
  401de2:	49 89 fc             	mov    %rdi,%r12
  401de5:	c7 05 35 53 00 00 00 	movl   $0x0,0x5335(%rip)        # 407124 <gets_cnt>
  401dec:	00 00 00 
  401def:	48 89 fb             	mov    %rdi,%rbx
  401df2:	48 8b 3d f7 46 00 00 	mov    0x46f7(%rip),%rdi        # 4064f0 <infile>
  401df9:	e8 12 f4 ff ff       	callq  401210 <getc@plt>
  401dfe:	83 f8 ff             	cmp    $0xffffffff,%eax
  401e01:	74 18                	je     401e1b <Gets+0x3d>
  401e03:	83 f8 0a             	cmp    $0xa,%eax
  401e06:	74 13                	je     401e1b <Gets+0x3d>
  401e08:	48 8d 6b 01          	lea    0x1(%rbx),%rbp
  401e0c:	88 03                	mov    %al,(%rbx)
  401e0e:	0f b6 f8             	movzbl %al,%edi
  401e11:	e8 26 ff ff ff       	callq  401d3c <save_char>
  401e16:	48 89 eb             	mov    %rbp,%rbx
  401e19:	eb d7                	jmp    401df2 <Gets+0x14>
  401e1b:	c6 03 00             	movb   $0x0,(%rbx)
  401e1e:	b8 00 00 00 00       	mov    $0x0,%eax
  401e23:	e8 6c ff ff ff       	callq  401d94 <save_term>
  401e28:	4c 89 e0             	mov    %r12,%rax
  401e2b:	5b                   	pop    %rbx
  401e2c:	5d                   	pop    %rbp
  401e2d:	41 5c                	pop    %r12
  401e2f:	c3                   	retq   

0000000000401e30 <notify_server>:
  401e30:	83 3d d5 46 00 00 00 	cmpl   $0x0,0x46d5(%rip)        # 40650c <is_checker>
  401e37:	0f 85 9a 00 00 00    	jne    401ed7 <notify_server+0xa7>
  401e3d:	53                   	push   %rbx
  401e3e:	48 81 ec 00 20 00 00 	sub    $0x2000,%rsp
  401e45:	81 3d d5 52 00 00 9c 	cmpl   $0x1f9c,0x52d5(%rip)        # 407124 <gets_cnt>
  401e4c:	1f 00 00 
  401e4f:	7f 5a                	jg     401eab <notify_server+0x7b>
  401e51:	44 0f be 0d cf 52 00 	movsbl 0x52cf(%rip),%r9d        # 407128 <target_prefix>
  401e58:	00 
  401e59:	83 3d 98 46 00 00 00 	cmpl   $0x0,0x4698(%rip)        # 4064f8 <notify>
  401e60:	74 64                	je     401ec6 <notify_server+0x96>
  401e62:	44 8b 05 9b 46 00 00 	mov    0x469b(%rip),%r8d        # 406504 <authkey>
  401e69:	85 ff                	test   %edi,%edi
  401e6b:	74 61                	je     401ece <notify_server+0x9e>
  401e6d:	48 8d 1d aa 15 00 00 	lea    0x15aa(%rip),%rbx        # 40341e <_IO_stdin_used+0x41e>
  401e74:	48 89 e7             	mov    %rsp,%rdi
  401e77:	48 8d 05 a2 46 00 00 	lea    0x46a2(%rip),%rax        # 406520 <gets_buf>
  401e7e:	50                   	push   %rax
  401e7f:	56                   	push   %rsi
  401e80:	48 89 d9             	mov    %rbx,%rcx
  401e83:	8b 15 a7 42 00 00    	mov    0x42a7(%rip),%edx        # 406130 <target_id>
  401e89:	48 8d 35 93 15 00 00 	lea    0x1593(%rip),%rsi        # 403423 <_IO_stdin_used+0x423>
  401e90:	b8 00 00 00 00       	mov    $0x0,%eax
  401e95:	e8 46 f3 ff ff       	callq  4011e0 <sprintf@plt>
  401e9a:	48 89 df             	mov    %rbx,%rdi
  401e9d:	e8 de f1 ff ff       	callq  401080 <puts@plt>
  401ea2:	48 81 c4 10 20 00 00 	add    $0x2010,%rsp
  401ea9:	5b                   	pop    %rbx
  401eaa:	c3                   	retq   
  401eab:	48 8d 3d 36 16 00 00 	lea    0x1636(%rip),%rdi        # 4034e8 <_IO_stdin_used+0x4e8>
  401eb2:	b8 00 00 00 00       	mov    $0x0,%eax
  401eb7:	e8 f4 f1 ff ff       	callq  4010b0 <printf@plt>
  401ebc:	bf 01 00 00 00       	mov    $0x1,%edi
  401ec1:	e8 2a f3 ff ff       	callq  4011f0 <exit@plt>
  401ec6:	41 b8 ff ff ff ff    	mov    $0xffffffff,%r8d
  401ecc:	eb 9b                	jmp    401e69 <notify_server+0x39>
  401ece:	48 8d 1d 44 15 00 00 	lea    0x1544(%rip),%rbx        # 403419 <_IO_stdin_used+0x419>
  401ed5:	eb 9d                	jmp    401e74 <notify_server+0x44>
  401ed7:	c3                   	retq   

0000000000401ed8 <validate>:
  401ed8:	53                   	push   %rbx
  401ed9:	89 fb                	mov    %edi,%ebx
  401edb:	83 3d 2a 46 00 00 00 	cmpl   $0x0,0x462a(%rip)        # 40650c <is_checker>
  401ee2:	74 68                	je     401f4c <validate+0x74>
  401ee4:	39 3d 16 46 00 00    	cmp    %edi,0x4616(%rip)        # 406500 <vlevel>
  401eea:	75 2d                	jne    401f19 <validate+0x41>
  401eec:	8b 35 0a 46 00 00    	mov    0x460a(%rip),%esi        # 4064fc <check_level>
  401ef2:	39 fe                	cmp    %edi,%esi
  401ef4:	75 39                	jne    401f2f <validate+0x57>
  401ef6:	0f be 35 2b 52 00 00 	movsbl 0x522b(%rip),%esi        # 407128 <target_prefix>
  401efd:	48 8d 0d 1c 46 00 00 	lea    0x461c(%rip),%rcx        # 406520 <gets_buf>
  401f04:	89 fa                	mov    %edi,%edx
  401f06:	48 8d 3d 50 15 00 00 	lea    0x1550(%rip),%rdi        # 40345d <_IO_stdin_used+0x45d>
  401f0d:	b8 00 00 00 00       	mov    $0x0,%eax
  401f12:	e8 99 f1 ff ff       	callq  4010b0 <printf@plt>
  401f17:	5b                   	pop    %rbx
  401f18:	c3                   	retq   
  401f19:	48 8d 3d 1f 15 00 00 	lea    0x151f(%rip),%rdi        # 40343f <_IO_stdin_used+0x43f>
  401f20:	e8 5b f1 ff ff       	callq  401080 <puts@plt>
  401f25:	b8 00 00 00 00       	mov    $0x0,%eax
  401f2a:	e8 7c fe ff ff       	callq  401dab <check_fail>
  401f2f:	89 fa                	mov    %edi,%edx
  401f31:	48 8d 3d e0 15 00 00 	lea    0x15e0(%rip),%rdi        # 403518 <_IO_stdin_used+0x518>
  401f38:	b8 00 00 00 00       	mov    $0x0,%eax
  401f3d:	e8 6e f1 ff ff       	callq  4010b0 <printf@plt>
  401f42:	b8 00 00 00 00       	mov    $0x0,%eax
  401f47:	e8 5f fe ff ff       	callq  401dab <check_fail>
  401f4c:	39 3d ae 45 00 00    	cmp    %edi,0x45ae(%rip)        # 406500 <vlevel>
  401f52:	74 1a                	je     401f6e <validate+0x96>
  401f54:	48 8d 3d e4 14 00 00 	lea    0x14e4(%rip),%rdi        # 40343f <_IO_stdin_used+0x43f>
  401f5b:	e8 20 f1 ff ff       	callq  401080 <puts@plt>
  401f60:	89 de                	mov    %ebx,%esi
  401f62:	bf 00 00 00 00       	mov    $0x0,%edi
  401f67:	e8 c4 fe ff ff       	callq  401e30 <notify_server>
  401f6c:	eb a9                	jmp    401f17 <validate+0x3f>
  401f6e:	0f be 15 b3 51 00 00 	movsbl 0x51b3(%rip),%edx        # 407128 <target_prefix>
  401f75:	89 fe                	mov    %edi,%esi
  401f77:	48 8d 3d c2 15 00 00 	lea    0x15c2(%rip),%rdi        # 403540 <_IO_stdin_used+0x540>
  401f7e:	b8 00 00 00 00       	mov    $0x0,%eax
  401f83:	e8 28 f1 ff ff       	callq  4010b0 <printf@plt>
  401f88:	89 de                	mov    %ebx,%esi
  401f8a:	bf 01 00 00 00       	mov    $0x1,%edi
  401f8f:	e8 9c fe ff ff       	callq  401e30 <notify_server>
  401f94:	eb 81                	jmp    401f17 <validate+0x3f>

0000000000401f96 <fail>:
  401f96:	48 83 ec 08          	sub    $0x8,%rsp
  401f9a:	83 3d 6b 45 00 00 00 	cmpl   $0x0,0x456b(%rip)        # 40650c <is_checker>
  401fa1:	75 11                	jne    401fb4 <fail+0x1e>
  401fa3:	89 fe                	mov    %edi,%esi
  401fa5:	bf 00 00 00 00       	mov    $0x0,%edi
  401faa:	e8 81 fe ff ff       	callq  401e30 <notify_server>
  401faf:	48 83 c4 08          	add    $0x8,%rsp
  401fb3:	c3                   	retq   
  401fb4:	b8 00 00 00 00       	mov    $0x0,%eax
  401fb9:	e8 ed fd ff ff       	callq  401dab <check_fail>

0000000000401fbe <bushandler>:
  401fbe:	48 83 ec 08          	sub    $0x8,%rsp
  401fc2:	83 3d 43 45 00 00 00 	cmpl   $0x0,0x4543(%rip)        # 40650c <is_checker>
  401fc9:	74 16                	je     401fe1 <bushandler+0x23>
  401fcb:	48 8d 3d a0 14 00 00 	lea    0x14a0(%rip),%rdi        # 403472 <_IO_stdin_used+0x472>
  401fd2:	e8 a9 f0 ff ff       	callq  401080 <puts@plt>
  401fd7:	b8 00 00 00 00       	mov    $0x0,%eax
  401fdc:	e8 ca fd ff ff       	callq  401dab <check_fail>
  401fe1:	48 8d 3d 90 15 00 00 	lea    0x1590(%rip),%rdi        # 403578 <_IO_stdin_used+0x578>
  401fe8:	e8 93 f0 ff ff       	callq  401080 <puts@plt>
  401fed:	48 8d 3d 88 14 00 00 	lea    0x1488(%rip),%rdi        # 40347c <_IO_stdin_used+0x47c>
  401ff4:	e8 87 f0 ff ff       	callq  401080 <puts@plt>
  401ff9:	be 00 00 00 00       	mov    $0x0,%esi
  401ffe:	bf 00 00 00 00       	mov    $0x0,%edi
  402003:	e8 28 fe ff ff       	callq  401e30 <notify_server>
  402008:	bf 01 00 00 00       	mov    $0x1,%edi
  40200d:	e8 de f1 ff ff       	callq  4011f0 <exit@plt>

0000000000402012 <seghandler>:
  402012:	48 83 ec 08          	sub    $0x8,%rsp
  402016:	83 3d ef 44 00 00 00 	cmpl   $0x0,0x44ef(%rip)        # 40650c <is_checker>
  40201d:	74 16                	je     402035 <seghandler+0x23>
  40201f:	48 8d 3d 6c 14 00 00 	lea    0x146c(%rip),%rdi        # 403492 <_IO_stdin_used+0x492>
  402026:	e8 55 f0 ff ff       	callq  401080 <puts@plt>
  40202b:	b8 00 00 00 00       	mov    $0x0,%eax
  402030:	e8 76 fd ff ff       	callq  401dab <check_fail>
  402035:	48 8d 3d 5c 15 00 00 	lea    0x155c(%rip),%rdi        # 403598 <_IO_stdin_used+0x598>
  40203c:	e8 3f f0 ff ff       	callq  401080 <puts@plt>
  402041:	48 8d 3d 34 14 00 00 	lea    0x1434(%rip),%rdi        # 40347c <_IO_stdin_used+0x47c>
  402048:	e8 33 f0 ff ff       	callq  401080 <puts@plt>
  40204d:	be 00 00 00 00       	mov    $0x0,%esi
  402052:	bf 00 00 00 00       	mov    $0x0,%edi
  402057:	e8 d4 fd ff ff       	callq  401e30 <notify_server>
  40205c:	bf 01 00 00 00       	mov    $0x1,%edi
  402061:	e8 8a f1 ff ff       	callq  4011f0 <exit@plt>

0000000000402066 <illegalhandler>:
  402066:	48 83 ec 08          	sub    $0x8,%rsp
  40206a:	83 3d 9b 44 00 00 00 	cmpl   $0x0,0x449b(%rip)        # 40650c <is_checker>
  402071:	74 16                	je     402089 <illegalhandler+0x23>
  402073:	48 8d 3d 2b 14 00 00 	lea    0x142b(%rip),%rdi        # 4034a5 <_IO_stdin_used+0x4a5>
  40207a:	e8 01 f0 ff ff       	callq  401080 <puts@plt>
  40207f:	b8 00 00 00 00       	mov    $0x0,%eax
  402084:	e8 22 fd ff ff       	callq  401dab <check_fail>
  402089:	48 8d 3d 30 15 00 00 	lea    0x1530(%rip),%rdi        # 4035c0 <_IO_stdin_used+0x5c0>
  402090:	e8 eb ef ff ff       	callq  401080 <puts@plt>
  402095:	48 8d 3d e0 13 00 00 	lea    0x13e0(%rip),%rdi        # 40347c <_IO_stdin_used+0x47c>
  40209c:	e8 df ef ff ff       	callq  401080 <puts@plt>
  4020a1:	be 00 00 00 00       	mov    $0x0,%esi
  4020a6:	bf 00 00 00 00       	mov    $0x0,%edi
  4020ab:	e8 80 fd ff ff       	callq  401e30 <notify_server>
  4020b0:	bf 01 00 00 00       	mov    $0x1,%edi
  4020b5:	e8 36 f1 ff ff       	callq  4011f0 <exit@plt>

00000000004020ba <sigalrmhandler>:
  4020ba:	48 83 ec 08          	sub    $0x8,%rsp
  4020be:	83 3d 47 44 00 00 00 	cmpl   $0x0,0x4447(%rip)        # 40650c <is_checker>
  4020c5:	74 16                	je     4020dd <sigalrmhandler+0x23>
  4020c7:	48 8d 3d eb 13 00 00 	lea    0x13eb(%rip),%rdi        # 4034b9 <_IO_stdin_used+0x4b9>
  4020ce:	e8 ad ef ff ff       	callq  401080 <puts@plt>
  4020d3:	b8 00 00 00 00       	mov    $0x0,%eax
  4020d8:	e8 ce fc ff ff       	callq  401dab <check_fail>
  4020dd:	be 05 00 00 00       	mov    $0x5,%esi
  4020e2:	48 8d 3d 07 15 00 00 	lea    0x1507(%rip),%rdi        # 4035f0 <_IO_stdin_used+0x5f0>
  4020e9:	b8 00 00 00 00       	mov    $0x0,%eax
  4020ee:	e8 bd ef ff ff       	callq  4010b0 <printf@plt>
  4020f3:	be 00 00 00 00       	mov    $0x0,%esi
  4020f8:	bf 00 00 00 00       	mov    $0x0,%edi
  4020fd:	e8 2e fd ff ff       	callq  401e30 <notify_server>
  402102:	bf 01 00 00 00       	mov    $0x1,%edi
  402107:	e8 e4 f0 ff ff       	callq  4011f0 <exit@plt>

000000000040210c <launch>:
  40210c:	55                   	push   %rbp
  40210d:	48 89 e5             	mov    %rsp,%rbp
  402110:	48 89 fa             	mov    %rdi,%rdx
  402113:	48 8d 47 17          	lea    0x17(%rdi),%rax
  402117:	48 83 e0 f0          	and    $0xfffffffffffffff0,%rax
  40211b:	48 29 c4             	sub    %rax,%rsp
  40211e:	48 8d 7c 24 0f       	lea    0xf(%rsp),%rdi
  402123:	48 83 e7 f0          	and    $0xfffffffffffffff0,%rdi
  402127:	be f4 00 00 00       	mov    $0xf4,%esi
  40212c:	e8 8f ef ff ff       	callq  4010c0 <memset@plt>
  402131:	48 8b 05 68 43 00 00 	mov    0x4368(%rip),%rax        # 4064a0 <stdin@@GLIBC_2.2.5>
  402138:	48 39 05 b1 43 00 00 	cmp    %rax,0x43b1(%rip)        # 4064f0 <infile>
  40213f:	74 2b                	je     40216c <launch+0x60>
  402141:	c7 05 b5 43 00 00 00 	movl   $0x0,0x43b5(%rip)        # 406500 <vlevel>
  402148:	00 00 00 
  40214b:	b8 00 00 00 00       	mov    $0x0,%eax
  402150:	e8 c1 fb ff ff       	callq  401d16 <test>
  402155:	83 3d b0 43 00 00 00 	cmpl   $0x0,0x43b0(%rip)        # 40650c <is_checker>
  40215c:	75 21                	jne    40217f <launch+0x73>
  40215e:	48 8d 3d 74 13 00 00 	lea    0x1374(%rip),%rdi        # 4034d9 <_IO_stdin_used+0x4d9>
  402165:	e8 16 ef ff ff       	callq  401080 <puts@plt>
  40216a:	c9                   	leaveq 
  40216b:	c3                   	retq   
  40216c:	48 8d 3d 4e 13 00 00 	lea    0x134e(%rip),%rdi        # 4034c1 <_IO_stdin_used+0x4c1>
  402173:	b8 00 00 00 00       	mov    $0x0,%eax
  402178:	e8 33 ef ff ff       	callq  4010b0 <printf@plt>
  40217d:	eb c2                	jmp    402141 <launch+0x35>
  40217f:	48 8d 3d 48 13 00 00 	lea    0x1348(%rip),%rdi        # 4034ce <_IO_stdin_used+0x4ce>
  402186:	e8 f5 ee ff ff       	callq  401080 <puts@plt>
  40218b:	b8 00 00 00 00       	mov    $0x0,%eax
  402190:	e8 16 fc ff ff       	callq  401dab <check_fail>

0000000000402195 <stable_launch>:
  402195:	53                   	push   %rbx
  402196:	48 89 3d 4b 43 00 00 	mov    %rdi,0x434b(%rip)        # 4064e8 <global_offset>
  40219d:	41 b9 00 00 00 00    	mov    $0x0,%r9d
  4021a3:	41 b8 00 00 00 00    	mov    $0x0,%r8d
  4021a9:	b9 32 01 00 00       	mov    $0x132,%ecx
  4021ae:	ba 07 00 00 00       	mov    $0x7,%edx
  4021b3:	be 00 00 10 00       	mov    $0x100000,%esi
  4021b8:	bf 00 60 58 55       	mov    $0x55586000,%edi
  4021bd:	e8 de ee ff ff       	callq  4010a0 <mmap@plt>
  4021c2:	48 89 c3             	mov    %rax,%rbx
  4021c5:	48 3d 00 60 58 55    	cmp    $0x55586000,%rax
  4021cb:	75 43                	jne    402210 <stable_launch+0x7b>
  4021cd:	48 8d 90 f8 ff 0f 00 	lea    0xffff8(%rax),%rdx
  4021d4:	48 89 15 55 4f 00 00 	mov    %rdx,0x4f55(%rip)        # 407130 <stack_top>
  4021db:	48 89 e0             	mov    %rsp,%rax
  4021de:	48 89 d4             	mov    %rdx,%rsp
  4021e1:	48 89 c2             	mov    %rax,%rdx
  4021e4:	48 89 15 f5 42 00 00 	mov    %rdx,0x42f5(%rip)        # 4064e0 <global_save_stack>
  4021eb:	48 8b 3d f6 42 00 00 	mov    0x42f6(%rip),%rdi        # 4064e8 <global_offset>
  4021f2:	e8 15 ff ff ff       	callq  40210c <launch>
  4021f7:	48 8b 05 e2 42 00 00 	mov    0x42e2(%rip),%rax        # 4064e0 <global_save_stack>
  4021fe:	48 89 c4             	mov    %rax,%rsp
  402201:	be 00 00 10 00       	mov    $0x100000,%esi
  402206:	48 89 df             	mov    %rbx,%rdi
  402209:	e8 72 ef ff ff       	callq  401180 <munmap@plt>
  40220e:	5b                   	pop    %rbx
  40220f:	c3                   	retq   
  402210:	be 00 00 10 00       	mov    $0x100000,%esi
  402215:	48 89 c7             	mov    %rax,%rdi
  402218:	e8 63 ef ff ff       	callq  401180 <munmap@plt>
  40221d:	ba 00 60 58 55       	mov    $0x55586000,%edx
  402222:	48 8d 35 ff 13 00 00 	lea    0x13ff(%rip),%rsi        # 403628 <_IO_stdin_used+0x628>
  402229:	48 8b 3d 90 42 00 00 	mov    0x4290(%rip),%rdi        # 4064c0 <stderr@@GLIBC_2.2.5>
  402230:	b8 00 00 00 00       	mov    $0x0,%eax
  402235:	e8 e6 ee ff ff       	callq  401120 <fprintf@plt>
  40223a:	bf 01 00 00 00       	mov    $0x1,%edi
  40223f:	e8 ac ef ff ff       	callq  4011f0 <exit@plt>

0000000000402244 <rio_readinitb>:
  402244:	89 37                	mov    %esi,(%rdi)
  402246:	c7 47 04 00 00 00 00 	movl   $0x0,0x4(%rdi)
  40224d:	48 8d 47 10          	lea    0x10(%rdi),%rax
  402251:	48 89 47 08          	mov    %rax,0x8(%rdi)
  402255:	c3                   	retq   

0000000000402256 <sigalrm_handler>:
  402256:	48 83 ec 08          	sub    $0x8,%rsp
  40225a:	ba 00 00 00 00       	mov    $0x0,%edx
  40225f:	48 8d 35 fa 13 00 00 	lea    0x13fa(%rip),%rsi        # 403660 <trans_char+0x10>
  402266:	48 8b 3d 53 42 00 00 	mov    0x4253(%rip),%rdi        # 4064c0 <stderr@@GLIBC_2.2.5>
  40226d:	b8 00 00 00 00       	mov    $0x0,%eax
  402272:	e8 a9 ee ff ff       	callq  401120 <fprintf@plt>
  402277:	bf 01 00 00 00       	mov    $0x1,%edi
  40227c:	e8 6f ef ff ff       	callq  4011f0 <exit@plt>

0000000000402281 <urlencode>:
  402281:	41 54                	push   %r12
  402283:	55                   	push   %rbp
  402284:	53                   	push   %rbx
  402285:	48 83 ec 10          	sub    $0x10,%rsp
  402289:	48 89 fb             	mov    %rdi,%rbx
  40228c:	48 89 f5             	mov    %rsi,%rbp
  40228f:	48 c7 c1 ff ff ff ff 	mov    $0xffffffffffffffff,%rcx
  402296:	b8 00 00 00 00       	mov    $0x0,%eax
  40229b:	f2 ae                	repnz scas %es:(%rdi),%al
  40229d:	48 89 ce             	mov    %rcx,%rsi
  4022a0:	48 f7 d6             	not    %rsi
  4022a3:	8d 46 ff             	lea    -0x1(%rsi),%eax
  4022a6:	eb 0e                	jmp    4022b6 <urlencode+0x35>
  4022a8:	88 55 00             	mov    %dl,0x0(%rbp)
  4022ab:	48 8d 6d 01          	lea    0x1(%rbp),%rbp
  4022af:	48 83 c3 01          	add    $0x1,%rbx
  4022b3:	44 89 e0             	mov    %r12d,%eax
  4022b6:	44 8d 60 ff          	lea    -0x1(%rax),%r12d
  4022ba:	85 c0                	test   %eax,%eax
  4022bc:	0f 84 95 00 00 00    	je     402357 <urlencode+0xd6>
  4022c2:	0f b6 13             	movzbl (%rbx),%edx
  4022c5:	80 fa 2a             	cmp    $0x2a,%dl
  4022c8:	0f 94 c1             	sete   %cl
  4022cb:	80 fa 2d             	cmp    $0x2d,%dl
  4022ce:	0f 94 c0             	sete   %al
  4022d1:	08 c1                	or     %al,%cl
  4022d3:	75 d3                	jne    4022a8 <urlencode+0x27>
  4022d5:	80 fa 2e             	cmp    $0x2e,%dl
  4022d8:	74 ce                	je     4022a8 <urlencode+0x27>
  4022da:	80 fa 5f             	cmp    $0x5f,%dl
  4022dd:	74 c9                	je     4022a8 <urlencode+0x27>
  4022df:	8d 42 d0             	lea    -0x30(%rdx),%eax
  4022e2:	3c 09                	cmp    $0x9,%al
  4022e4:	76 c2                	jbe    4022a8 <urlencode+0x27>
  4022e6:	8d 42 bf             	lea    -0x41(%rdx),%eax
  4022e9:	3c 19                	cmp    $0x19,%al
  4022eb:	76 bb                	jbe    4022a8 <urlencode+0x27>
  4022ed:	8d 42 9f             	lea    -0x61(%rdx),%eax
  4022f0:	3c 19                	cmp    $0x19,%al
  4022f2:	76 b4                	jbe    4022a8 <urlencode+0x27>
  4022f4:	80 fa 20             	cmp    $0x20,%dl
  4022f7:	74 4c                	je     402345 <urlencode+0xc4>
  4022f9:	8d 42 e0             	lea    -0x20(%rdx),%eax
  4022fc:	3c 5f                	cmp    $0x5f,%al
  4022fe:	0f 96 c1             	setbe  %cl
  402301:	80 fa 09             	cmp    $0x9,%dl
  402304:	0f 94 c0             	sete   %al
  402307:	08 c1                	or     %al,%cl
  402309:	74 47                	je     402352 <urlencode+0xd1>
  40230b:	0f b6 d2             	movzbl %dl,%edx
  40230e:	48 8d 7c 24 08       	lea    0x8(%rsp),%rdi
  402313:	48 8d 35 de 13 00 00 	lea    0x13de(%rip),%rsi        # 4036f8 <trans_char+0xa8>
  40231a:	b8 00 00 00 00       	mov    $0x0,%eax
  40231f:	e8 bc ee ff ff       	callq  4011e0 <sprintf@plt>
  402324:	0f b6 44 24 08       	movzbl 0x8(%rsp),%eax
  402329:	88 45 00             	mov    %al,0x0(%rbp)
  40232c:	0f b6 44 24 09       	movzbl 0x9(%rsp),%eax
  402331:	88 45 01             	mov    %al,0x1(%rbp)
  402334:	0f b6 44 24 0a       	movzbl 0xa(%rsp),%eax
  402339:	88 45 02             	mov    %al,0x2(%rbp)
  40233c:	48 8d 6d 03          	lea    0x3(%rbp),%rbp
  402340:	e9 6a ff ff ff       	jmpq   4022af <urlencode+0x2e>
  402345:	c6 45 00 2b          	movb   $0x2b,0x0(%rbp)
  402349:	48 8d 6d 01          	lea    0x1(%rbp),%rbp
  40234d:	e9 5d ff ff ff       	jmpq   4022af <urlencode+0x2e>
  402352:	b8 ff ff ff ff       	mov    $0xffffffff,%eax
  402357:	48 83 c4 10          	add    $0x10,%rsp
  40235b:	5b                   	pop    %rbx
  40235c:	5d                   	pop    %rbp
  40235d:	41 5c                	pop    %r12
  40235f:	c3                   	retq   

0000000000402360 <rio_writen>:
  402360:	41 55                	push   %r13
  402362:	41 54                	push   %r12
  402364:	55                   	push   %rbp
  402365:	53                   	push   %rbx
  402366:	48 83 ec 08          	sub    $0x8,%rsp
  40236a:	41 89 fc             	mov    %edi,%r12d
  40236d:	48 89 f5             	mov    %rsi,%rbp
  402370:	49 89 d5             	mov    %rdx,%r13
  402373:	48 89 d3             	mov    %rdx,%rbx
  402376:	eb 06                	jmp    40237e <rio_writen+0x1e>
  402378:	48 29 c3             	sub    %rax,%rbx
  40237b:	48 01 c5             	add    %rax,%rbp
  40237e:	48 85 db             	test   %rbx,%rbx
  402381:	74 24                	je     4023a7 <rio_writen+0x47>
  402383:	48 89 da             	mov    %rbx,%rdx
  402386:	48 89 ee             	mov    %rbp,%rsi
  402389:	44 89 e7             	mov    %r12d,%edi
  40238c:	e8 ff ec ff ff       	callq  401090 <write@plt>
  402391:	48 85 c0             	test   %rax,%rax
  402394:	7f e2                	jg     402378 <rio_writen+0x18>
  402396:	e8 a5 ec ff ff       	callq  401040 <__errno_location@plt>
  40239b:	83 38 04             	cmpl   $0x4,(%rax)
  40239e:	75 15                	jne    4023b5 <rio_writen+0x55>
  4023a0:	b8 00 00 00 00       	mov    $0x0,%eax
  4023a5:	eb d1                	jmp    402378 <rio_writen+0x18>
  4023a7:	4c 89 e8             	mov    %r13,%rax
  4023aa:	48 83 c4 08          	add    $0x8,%rsp
  4023ae:	5b                   	pop    %rbx
  4023af:	5d                   	pop    %rbp
  4023b0:	41 5c                	pop    %r12
  4023b2:	41 5d                	pop    %r13
  4023b4:	c3                   	retq   
  4023b5:	48 c7 c0 ff ff ff ff 	mov    $0xffffffffffffffff,%rax
  4023bc:	eb ec                	jmp    4023aa <rio_writen+0x4a>

00000000004023be <rio_read>:
  4023be:	41 55                	push   %r13
  4023c0:	41 54                	push   %r12
  4023c2:	55                   	push   %rbp
  4023c3:	53                   	push   %rbx
  4023c4:	48 83 ec 08          	sub    $0x8,%rsp
  4023c8:	48 89 fb             	mov    %rdi,%rbx
  4023cb:	49 89 f5             	mov    %rsi,%r13
  4023ce:	49 89 d4             	mov    %rdx,%r12
  4023d1:	eb 0a                	jmp    4023dd <rio_read+0x1f>
  4023d3:	e8 68 ec ff ff       	callq  401040 <__errno_location@plt>
  4023d8:	83 38 04             	cmpl   $0x4,(%rax)
  4023db:	75 5a                	jne    402437 <rio_read+0x79>
  4023dd:	8b 6b 04             	mov    0x4(%rbx),%ebp
  4023e0:	85 ed                	test   %ebp,%ebp
  4023e2:	7f 22                	jg     402406 <rio_read+0x48>
  4023e4:	48 8d 6b 10          	lea    0x10(%rbx),%rbp
  4023e8:	ba 00 20 00 00       	mov    $0x2000,%edx
  4023ed:	48 89 ee             	mov    %rbp,%rsi
  4023f0:	8b 3b                	mov    (%rbx),%edi
  4023f2:	e8 f9 ec ff ff       	callq  4010f0 <read@plt>
  4023f7:	89 43 04             	mov    %eax,0x4(%rbx)
  4023fa:	85 c0                	test   %eax,%eax
  4023fc:	78 d5                	js     4023d3 <rio_read+0x15>
  4023fe:	74 40                	je     402440 <rio_read+0x82>
  402400:	48 89 6b 08          	mov    %rbp,0x8(%rbx)
  402404:	eb d7                	jmp    4023dd <rio_read+0x1f>
  402406:	89 e8                	mov    %ebp,%eax
  402408:	4c 39 e0             	cmp    %r12,%rax
  40240b:	72 03                	jb     402410 <rio_read+0x52>
  40240d:	44 89 e5             	mov    %r12d,%ebp
  402410:	4c 63 e5             	movslq %ebp,%r12
  402413:	48 8b 73 08          	mov    0x8(%rbx),%rsi
  402417:	4c 89 e2             	mov    %r12,%rdx
  40241a:	4c 89 ef             	mov    %r13,%rdi
  40241d:	e8 1e ed ff ff       	callq  401140 <memcpy@plt>
  402422:	4c 01 63 08          	add    %r12,0x8(%rbx)
  402426:	29 6b 04             	sub    %ebp,0x4(%rbx)
  402429:	4c 89 e0             	mov    %r12,%rax
  40242c:	48 83 c4 08          	add    $0x8,%rsp
  402430:	5b                   	pop    %rbx
  402431:	5d                   	pop    %rbp
  402432:	41 5c                	pop    %r12
  402434:	41 5d                	pop    %r13
  402436:	c3                   	retq   
  402437:	48 c7 c0 ff ff ff ff 	mov    $0xffffffffffffffff,%rax
  40243e:	eb ec                	jmp    40242c <rio_read+0x6e>
  402440:	b8 00 00 00 00       	mov    $0x0,%eax
  402445:	eb e5                	jmp    40242c <rio_read+0x6e>

0000000000402447 <rio_readlineb>:
  402447:	41 55                	push   %r13
  402449:	41 54                	push   %r12
  40244b:	55                   	push   %rbp
  40244c:	53                   	push   %rbx
  40244d:	48 83 ec 18          	sub    $0x18,%rsp
  402451:	49 89 fd             	mov    %rdi,%r13
  402454:	48 89 f5             	mov    %rsi,%rbp
  402457:	49 89 d4             	mov    %rdx,%r12
  40245a:	bb 01 00 00 00       	mov    $0x1,%ebx
  40245f:	4c 39 e3             	cmp    %r12,%rbx
  402462:	73 44                	jae    4024a8 <rio_readlineb+0x61>
  402464:	48 8d 74 24 0f       	lea    0xf(%rsp),%rsi
  402469:	ba 01 00 00 00       	mov    $0x1,%edx
  40246e:	4c 89 ef             	mov    %r13,%rdi
  402471:	e8 48 ff ff ff       	callq  4023be <rio_read>
  402476:	83 f8 01             	cmp    $0x1,%eax
  402479:	75 19                	jne    402494 <rio_readlineb+0x4d>
  40247b:	48 8d 55 01          	lea    0x1(%rbp),%rdx
  40247f:	0f b6 44 24 0f       	movzbl 0xf(%rsp),%eax
  402484:	88 45 00             	mov    %al,0x0(%rbp)
  402487:	3c 0a                	cmp    $0xa,%al
  402489:	74 1a                	je     4024a5 <rio_readlineb+0x5e>
  40248b:	48 83 c3 01          	add    $0x1,%rbx
  40248f:	48 89 d5             	mov    %rdx,%rbp
  402492:	eb cb                	jmp    40245f <rio_readlineb+0x18>
  402494:	85 c0                	test   %eax,%eax
  402496:	75 22                	jne    4024ba <rio_readlineb+0x73>
  402498:	48 83 fb 01          	cmp    $0x1,%rbx
  40249c:	75 0a                	jne    4024a8 <rio_readlineb+0x61>
  40249e:	b8 00 00 00 00       	mov    $0x0,%eax
  4024a3:	eb 0a                	jmp    4024af <rio_readlineb+0x68>
  4024a5:	48 89 d5             	mov    %rdx,%rbp
  4024a8:	c6 45 00 00          	movb   $0x0,0x0(%rbp)
  4024ac:	48 89 d8             	mov    %rbx,%rax
  4024af:	48 83 c4 18          	add    $0x18,%rsp
  4024b3:	5b                   	pop    %rbx
  4024b4:	5d                   	pop    %rbp
  4024b5:	41 5c                	pop    %r12
  4024b7:	41 5d                	pop    %r13
  4024b9:	c3                   	retq   
  4024ba:	48 c7 c0 ff ff ff ff 	mov    $0xffffffffffffffff,%rax
  4024c1:	eb ec                	jmp    4024af <rio_readlineb+0x68>

00000000004024c3 <submitr>:
  4024c3:	41 57                	push   %r15
  4024c5:	41 56                	push   %r14
  4024c7:	41 55                	push   %r13
  4024c9:	41 54                	push   %r12
  4024cb:	55                   	push   %rbp
  4024cc:	53                   	push   %rbx
  4024cd:	48 81 ec 58 a0 00 00 	sub    $0xa058,%rsp
  4024d4:	49 89 fd             	mov    %rdi,%r13
  4024d7:	89 74 24 14          	mov    %esi,0x14(%rsp)
  4024db:	49 89 d7             	mov    %rdx,%r15
  4024de:	48 89 4c 24 08       	mov    %rcx,0x8(%rsp)
  4024e3:	4c 89 44 24 18       	mov    %r8,0x18(%rsp)
  4024e8:	4d 89 ce             	mov    %r9,%r14
  4024eb:	48 8b ac 24 90 a0 00 	mov    0xa090(%rsp),%rbp
  4024f2:	00 
  4024f3:	c7 84 24 2c 20 00 00 	movl   $0x0,0x202c(%rsp)
  4024fa:	00 00 00 00 
  4024fe:	ba 00 00 00 00       	mov    $0x0,%edx
  402503:	be 01 00 00 00       	mov    $0x1,%esi
  402508:	bf 02 00 00 00       	mov    $0x2,%edi
  40250d:	e8 0e ed ff ff       	callq  401220 <socket@plt>
  402512:	85 c0                	test   %eax,%eax
  402514:	0f 88 9a 02 00 00    	js     4027b4 <submitr+0x2f1>
  40251a:	89 c3                	mov    %eax,%ebx
  40251c:	4c 89 ef             	mov    %r13,%rdi
  40251f:	e8 ec eb ff ff       	callq  401110 <gethostbyname@plt>
  402524:	48 85 c0             	test   %rax,%rax
  402527:	0f 84 d3 02 00 00    	je     402800 <submitr+0x33d>
  40252d:	4c 8d a4 24 40 a0 00 	lea    0xa040(%rsp),%r12
  402534:	00 
  402535:	48 c7 84 24 42 a0 00 	movq   $0x0,0xa042(%rsp)
  40253c:	00 00 00 00 00 
  402541:	c7 84 24 4a a0 00 00 	movl   $0x0,0xa04a(%rsp)
  402548:	00 00 00 00 
  40254c:	66 c7 84 24 4e a0 00 	movw   $0x0,0xa04e(%rsp)
  402553:	00 00 00 
  402556:	66 c7 84 24 40 a0 00 	movw   $0x2,0xa040(%rsp)
  40255d:	00 02 00 
  402560:	48 8b 48 18          	mov    0x18(%rax),%rcx
  402564:	48 63 50 14          	movslq 0x14(%rax),%rdx
  402568:	48 8d bc 24 44 a0 00 	lea    0xa044(%rsp),%rdi
  40256f:	00 
  402570:	48 8b 31             	mov    (%rcx),%rsi
  402573:	e8 18 ec ff ff       	callq  401190 <memmove@plt>
  402578:	0f b7 44 24 14       	movzwl 0x14(%rsp),%eax
  40257d:	66 c1 c0 08          	rol    $0x8,%ax
  402581:	66 89 84 24 42 a0 00 	mov    %ax,0xa042(%rsp)
  402588:	00 
  402589:	ba 10 00 00 00       	mov    $0x10,%edx
  40258e:	4c 89 e6             	mov    %r12,%rsi
  402591:	89 df                	mov    %ebx,%edi
  402593:	e8 68 ec ff ff       	callq  401200 <connect@plt>
  402598:	85 c0                	test   %eax,%eax
  40259a:	0f 88 c8 02 00 00    	js     402868 <submitr+0x3a5>
  4025a0:	48 c7 c6 ff ff ff ff 	mov    $0xffffffffffffffff,%rsi
  4025a7:	b8 00 00 00 00       	mov    $0x0,%eax
  4025ac:	48 89 f1             	mov    %rsi,%rcx
  4025af:	4c 89 f7             	mov    %r14,%rdi
  4025b2:	f2 ae                	repnz scas %es:(%rdi),%al
  4025b4:	48 89 ca             	mov    %rcx,%rdx
  4025b7:	48 f7 d2             	not    %rdx
  4025ba:	48 89 f1             	mov    %rsi,%rcx
  4025bd:	4c 89 ff             	mov    %r15,%rdi
  4025c0:	f2 ae                	repnz scas %es:(%rdi),%al
  4025c2:	48 f7 d1             	not    %rcx
  4025c5:	49 89 c8             	mov    %rcx,%r8
  4025c8:	48 89 f1             	mov    %rsi,%rcx
  4025cb:	48 8b 7c 24 08       	mov    0x8(%rsp),%rdi
  4025d0:	f2 ae                	repnz scas %es:(%rdi),%al
  4025d2:	48 f7 d1             	not    %rcx
  4025d5:	4d 8d 44 08 fe       	lea    -0x2(%r8,%rcx,1),%r8
  4025da:	48 89 f1             	mov    %rsi,%rcx
  4025dd:	48 8b 7c 24 18       	mov    0x18(%rsp),%rdi
  4025e2:	f2 ae                	repnz scas %es:(%rdi),%al
  4025e4:	48 89 c8             	mov    %rcx,%rax
  4025e7:	48 f7 d0             	not    %rax
  4025ea:	49 8d 4c 00 ff       	lea    -0x1(%r8,%rax,1),%rcx
  4025ef:	48 8d 44 52 fd       	lea    -0x3(%rdx,%rdx,2),%rax
  4025f4:	48 8d 84 01 80 00 00 	lea    0x80(%rcx,%rax,1),%rax
  4025fb:	00 
  4025fc:	48 3d 00 20 00 00    	cmp    $0x2000,%rax
  402602:	0f 87 ba 02 00 00    	ja     4028c2 <submitr+0x3ff>
  402608:	48 8d b4 24 30 40 00 	lea    0x4030(%rsp),%rsi
  40260f:	00 
  402610:	b9 00 04 00 00       	mov    $0x400,%ecx
  402615:	b8 00 00 00 00       	mov    $0x0,%eax
  40261a:	48 89 f7             	mov    %rsi,%rdi
  40261d:	f3 48 ab             	rep stos %rax,%es:(%rdi)
  402620:	4c 89 f7             	mov    %r14,%rdi
  402623:	e8 59 fc ff ff       	callq  402281 <urlencode>
  402628:	85 c0                	test   %eax,%eax
  40262a:	0f 88 05 03 00 00    	js     402935 <submitr+0x472>
  402630:	4c 8d a4 24 30 60 00 	lea    0x6030(%rsp),%r12
  402637:	00 
  402638:	4d 89 e9             	mov    %r13,%r9
  40263b:	4c 8d 84 24 30 40 00 	lea    0x4030(%rsp),%r8
  402642:	00 
  402643:	4c 89 f9             	mov    %r15,%rcx
  402646:	48 8b 54 24 08       	mov    0x8(%rsp),%rdx
  40264b:	48 8d 35 36 10 00 00 	lea    0x1036(%rip),%rsi        # 403688 <trans_char+0x38>
  402652:	4c 89 e7             	mov    %r12,%rdi
  402655:	b8 00 00 00 00       	mov    $0x0,%eax
  40265a:	e8 81 eb ff ff       	callq  4011e0 <sprintf@plt>
  40265f:	48 c7 c1 ff ff ff ff 	mov    $0xffffffffffffffff,%rcx
  402666:	b8 00 00 00 00       	mov    $0x0,%eax
  40266b:	4c 89 e7             	mov    %r12,%rdi
  40266e:	f2 ae                	repnz scas %es:(%rdi),%al
  402670:	48 89 ca             	mov    %rcx,%rdx
  402673:	48 f7 d2             	not    %rdx
  402676:	48 8d 52 ff          	lea    -0x1(%rdx),%rdx
  40267a:	4c 89 e6             	mov    %r12,%rsi
  40267d:	89 df                	mov    %ebx,%edi
  40267f:	e8 dc fc ff ff       	callq  402360 <rio_writen>
  402684:	48 85 c0             	test   %rax,%rax
  402687:	0f 88 33 03 00 00    	js     4029c0 <submitr+0x4fd>
  40268d:	4c 8d a4 24 30 80 00 	lea    0x8030(%rsp),%r12
  402694:	00 
  402695:	89 de                	mov    %ebx,%esi
  402697:	4c 89 e7             	mov    %r12,%rdi
  40269a:	e8 a5 fb ff ff       	callq  402244 <rio_readinitb>
  40269f:	48 8d b4 24 30 60 00 	lea    0x6030(%rsp),%rsi
  4026a6:	00 
  4026a7:	ba 00 20 00 00       	mov    $0x2000,%edx
  4026ac:	4c 89 e7             	mov    %r12,%rdi
  4026af:	e8 93 fd ff ff       	callq  402447 <rio_readlineb>
  4026b4:	48 85 c0             	test   %rax,%rax
  4026b7:	0f 8e 72 03 00 00    	jle    402a2f <submitr+0x56c>
  4026bd:	48 8d 8c 24 2c 20 00 	lea    0x202c(%rsp),%rcx
  4026c4:	00 
  4026c5:	48 8d 94 24 30 20 00 	lea    0x2030(%rsp),%rdx
  4026cc:	00 
  4026cd:	48 8d bc 24 30 60 00 	lea    0x6030(%rsp),%rdi
  4026d4:	00 
  4026d5:	4c 8d 44 24 20       	lea    0x20(%rsp),%r8
  4026da:	48 8d 35 1e 10 00 00 	lea    0x101e(%rip),%rsi        # 4036ff <trans_char+0xaf>
  4026e1:	b8 00 00 00 00       	mov    $0x0,%eax
  4026e6:	e8 85 ea ff ff       	callq  401170 <__isoc99_sscanf@plt>
  4026eb:	48 8d b4 24 30 60 00 	lea    0x6030(%rsp),%rsi
  4026f2:	00 
  4026f3:	b9 03 00 00 00       	mov    $0x3,%ecx
  4026f8:	48 8d 3d 17 10 00 00 	lea    0x1017(%rip),%rdi        # 403716 <trans_char+0xc6>
  4026ff:	f3 a6                	repz cmpsb %es:(%rdi),%ds:(%rsi)
  402701:	0f 97 c0             	seta   %al
  402704:	1c 00                	sbb    $0x0,%al
  402706:	84 c0                	test   %al,%al
  402708:	0f 84 9f 03 00 00    	je     402aad <submitr+0x5ea>
  40270e:	48 8d b4 24 30 60 00 	lea    0x6030(%rsp),%rsi
  402715:	00 
  402716:	48 8d bc 24 30 80 00 	lea    0x8030(%rsp),%rdi
  40271d:	00 
  40271e:	ba 00 20 00 00       	mov    $0x2000,%edx
  402723:	e8 1f fd ff ff       	callq  402447 <rio_readlineb>
  402728:	48 85 c0             	test   %rax,%rax
  40272b:	7f be                	jg     4026eb <submitr+0x228>
  40272d:	48 b8 45 72 72 6f 72 	movabs $0x43203a726f727245,%rax
  402734:	3a 20 43 
  402737:	48 ba 6c 69 65 6e 74 	movabs $0x6e7520746e65696c,%rdx
  40273e:	20 75 6e 
  402741:	48 89 45 00          	mov    %rax,0x0(%rbp)
  402745:	48 89 55 08          	mov    %rdx,0x8(%rbp)
  402749:	48 b8 61 62 6c 65 20 	movabs $0x206f7420656c6261,%rax
  402750:	74 6f 20 
  402753:	48 ba 72 65 61 64 20 	movabs $0x6165682064616572,%rdx
  40275a:	68 65 61 
  40275d:	48 89 45 10          	mov    %rax,0x10(%rbp)
  402761:	48 89 55 18          	mov    %rdx,0x18(%rbp)
  402765:	48 b8 64 65 72 73 20 	movabs $0x6f72662073726564,%rax
  40276c:	66 72 6f 
  40276f:	48 ba 6d 20 74 68 65 	movabs $0x657220656874206d,%rdx
  402776:	20 72 65 
  402779:	48 89 45 20          	mov    %rax,0x20(%rbp)
  40277d:	48 89 55 28          	mov    %rdx,0x28(%rbp)
  402781:	48 b8 73 75 6c 74 20 	movabs $0x72657320746c7573,%rax
  402788:	73 65 72 
  40278b:	48 89 45 30          	mov    %rax,0x30(%rbp)
  40278f:	c7 45 38 76 65 72 00 	movl   $0x726576,0x38(%rbp)
  402796:	89 df                	mov    %ebx,%edi
  402798:	e8 43 e9 ff ff       	callq  4010e0 <close@plt>
  40279d:	b8 ff ff ff ff       	mov    $0xffffffff,%eax
  4027a2:	48 81 c4 58 a0 00 00 	add    $0xa058,%rsp
  4027a9:	5b                   	pop    %rbx
  4027aa:	5d                   	pop    %rbp
  4027ab:	41 5c                	pop    %r12
  4027ad:	41 5d                	pop    %r13
  4027af:	41 5e                	pop    %r14
  4027b1:	41 5f                	pop    %r15
  4027b3:	c3                   	retq   
  4027b4:	48 b8 45 72 72 6f 72 	movabs $0x43203a726f727245,%rax
  4027bb:	3a 20 43 
  4027be:	48 ba 6c 69 65 6e 74 	movabs $0x6e7520746e65696c,%rdx
  4027c5:	20 75 6e 
  4027c8:	48 89 45 00          	mov    %rax,0x0(%rbp)
  4027cc:	48 89 55 08          	mov    %rdx,0x8(%rbp)
  4027d0:	48 b8 61 62 6c 65 20 	movabs $0x206f7420656c6261,%rax
  4027d7:	74 6f 20 
  4027da:	48 ba 63 72 65 61 74 	movabs $0x7320657461657263,%rdx
  4027e1:	65 20 73 
  4027e4:	48 89 45 10          	mov    %rax,0x10(%rbp)
  4027e8:	48 89 55 18          	mov    %rdx,0x18(%rbp)
  4027ec:	c7 45 20 6f 63 6b 65 	movl   $0x656b636f,0x20(%rbp)
  4027f3:	66 c7 45 24 74 00    	movw   $0x74,0x24(%rbp)
  4027f9:	b8 ff ff ff ff       	mov    $0xffffffff,%eax
  4027fe:	eb a2                	jmp    4027a2 <submitr+0x2df>
  402800:	48 b8 45 72 72 6f 72 	movabs $0x44203a726f727245,%rax
  402807:	3a 20 44 
  40280a:	48 ba 4e 53 20 69 73 	movabs $0x6e7520736920534e,%rdx
  402811:	20 75 6e 
  402814:	48 89 45 00          	mov    %rax,0x0(%rbp)
  402818:	48 89 55 08          	mov    %rdx,0x8(%rbp)
  40281c:	48 b8 61 62 6c 65 20 	movabs $0x206f7420656c6261,%rax
  402823:	74 6f 20 
  402826:	48 ba 72 65 73 6f 6c 	movabs $0x2065766c6f736572,%rdx
  40282d:	76 65 20 
  402830:	48 89 45 10          	mov    %rax,0x10(%rbp)
  402834:	48 89 55 18          	mov    %rdx,0x18(%rbp)
  402838:	48 b8 73 65 72 76 65 	movabs $0x6120726576726573,%rax
  40283f:	72 20 61 
  402842:	48 89 45 20          	mov    %rax,0x20(%rbp)
  402846:	c7 45 28 64 64 72 65 	movl   $0x65726464,0x28(%rbp)
  40284d:	66 c7 45 2c 73 73    	movw   $0x7373,0x2c(%rbp)
  402853:	c6 45 2e 00          	movb   $0x0,0x2e(%rbp)
  402857:	89 df                	mov    %ebx,%edi
  402859:	e8 82 e8 ff ff       	callq  4010e0 <close@plt>
  40285e:	b8 ff ff ff ff       	mov    $0xffffffff,%eax
  402863:	e9 3a ff ff ff       	jmpq   4027a2 <submitr+0x2df>
  402868:	48 b8 45 72 72 6f 72 	movabs $0x55203a726f727245,%rax
  40286f:	3a 20 55 
  402872:	48 ba 6e 61 62 6c 65 	movabs $0x6f7420656c62616e,%rdx
  402879:	20 74 6f 
  40287c:	48 89 45 00          	mov    %rax,0x0(%rbp)
  402880:	48 89 55 08          	mov    %rdx,0x8(%rbp)
  402884:	48 b8 20 63 6f 6e 6e 	movabs $0x7463656e6e6f6320,%rax
  40288b:	65 63 74 
  40288e:	48 ba 20 74 6f 20 74 	movabs $0x20656874206f7420,%rdx
  402895:	68 65 20 
  402898:	48 89 45 10          	mov    %rax,0x10(%rbp)
  40289c:	48 89 55 18          	mov    %rdx,0x18(%rbp)
  4028a0:	c7 45 20 73 65 72 76 	movl   $0x76726573,0x20(%rbp)
  4028a7:	66 c7 45 24 65 72    	movw   $0x7265,0x24(%rbp)
  4028ad:	c6 45 26 00          	movb   $0x0,0x26(%rbp)
  4028b1:	89 df                	mov    %ebx,%edi
  4028b3:	e8 28 e8 ff ff       	callq  4010e0 <close@plt>
  4028b8:	b8 ff ff ff ff       	mov    $0xffffffff,%eax
  4028bd:	e9 e0 fe ff ff       	jmpq   4027a2 <submitr+0x2df>
  4028c2:	48 b8 45 72 72 6f 72 	movabs $0x52203a726f727245,%rax
  4028c9:	3a 20 52 
  4028cc:	48 ba 65 73 75 6c 74 	movabs $0x747320746c757365,%rdx
  4028d3:	20 73 74 
  4028d6:	48 89 45 00          	mov    %rax,0x0(%rbp)
  4028da:	48 89 55 08          	mov    %rdx,0x8(%rbp)
  4028de:	48 b8 72 69 6e 67 20 	movabs $0x6f6f7420676e6972,%rax
  4028e5:	74 6f 6f 
  4028e8:	48 ba 20 6c 61 72 67 	movabs $0x202e656772616c20,%rdx
  4028ef:	65 2e 20 
  4028f2:	48 89 45 10          	mov    %rax,0x10(%rbp)
  4028f6:	48 89 55 18          	mov    %rdx,0x18(%rbp)
  4028fa:	48 b8 49 6e 63 72 65 	movabs $0x6573616572636e49,%rax
  402901:	61 73 65 
  402904:	48 ba 20 53 55 42 4d 	movabs $0x5254494d42555320,%rdx
  40290b:	49 54 52 
  40290e:	48 89 45 20          	mov    %rax,0x20(%rbp)
  402912:	48 89 55 28          	mov    %rdx,0x28(%rbp)
  402916:	48 b8 5f 4d 41 58 42 	movabs $0x46554258414d5f,%rax
  40291d:	55 46 00 
  402920:	48 89 45 30          	mov    %rax,0x30(%rbp)
  402924:	89 df                	mov    %ebx,%edi
  402926:	e8 b5 e7 ff ff       	callq  4010e0 <close@plt>
  40292b:	b8 ff ff ff ff       	mov    $0xffffffff,%eax
  402930:	e9 6d fe ff ff       	jmpq   4027a2 <submitr+0x2df>
  402935:	48 b8 45 72 72 6f 72 	movabs $0x52203a726f727245,%rax
  40293c:	3a 20 52 
  40293f:	48 ba 65 73 75 6c 74 	movabs $0x747320746c757365,%rdx
  402946:	20 73 74 
  402949:	48 89 45 00          	mov    %rax,0x0(%rbp)
  40294d:	48 89 55 08          	mov    %rdx,0x8(%rbp)
  402951:	48 b8 72 69 6e 67 20 	movabs $0x6e6f6320676e6972,%rax
  402958:	63 6f 6e 
  40295b:	48 ba 74 61 69 6e 73 	movabs $0x6e6120736e696174,%rdx
  402962:	20 61 6e 
  402965:	48 89 45 10          	mov    %rax,0x10(%rbp)
  402969:	48 89 55 18          	mov    %rdx,0x18(%rbp)
  40296d:	48 b8 20 69 6c 6c 65 	movabs $0x6c6167656c6c6920,%rax
  402974:	67 61 6c 
  402977:	48 ba 20 6f 72 20 75 	movabs $0x72706e7520726f20,%rdx
  40297e:	6e 70 72 
  402981:	48 89 45 20          	mov    %rax,0x20(%rbp)
  402985:	48 89 55 28          	mov    %rdx,0x28(%rbp)
  402989:	48 b8 69 6e 74 61 62 	movabs $0x20656c6261746e69,%rax
  402990:	6c 65 20 
  402993:	48 ba 63 68 61 72 61 	movabs $0x6574636172616863,%rdx
  40299a:	63 74 65 
  40299d:	48 89 45 30          	mov    %rax,0x30(%rbp)
  4029a1:	48 89 55 38          	mov    %rdx,0x38(%rbp)
  4029a5:	66 c7 45 40 72 2e    	movw   $0x2e72,0x40(%rbp)
  4029ab:	c6 45 42 00          	movb   $0x0,0x42(%rbp)
  4029af:	89 df                	mov    %ebx,%edi
  4029b1:	e8 2a e7 ff ff       	callq  4010e0 <close@plt>
  4029b6:	b8 ff ff ff ff       	mov    $0xffffffff,%eax
  4029bb:	e9 e2 fd ff ff       	jmpq   4027a2 <submitr+0x2df>
  4029c0:	48 b8 45 72 72 6f 72 	movabs $0x43203a726f727245,%rax
  4029c7:	3a 20 43 
  4029ca:	48 ba 6c 69 65 6e 74 	movabs $0x6e7520746e65696c,%rdx
  4029d1:	20 75 6e 
  4029d4:	48 89 45 00          	mov    %rax,0x0(%rbp)
  4029d8:	48 89 55 08          	mov    %rdx,0x8(%rbp)
  4029dc:	48 b8 61 62 6c 65 20 	movabs $0x206f7420656c6261,%rax
  4029e3:	74 6f 20 
  4029e6:	48 ba 77 72 69 74 65 	movabs $0x6f74206574697277,%rdx
  4029ed:	20 74 6f 
  4029f0:	48 89 45 10          	mov    %rax,0x10(%rbp)
  4029f4:	48 89 55 18          	mov    %rdx,0x18(%rbp)
  4029f8:	48 b8 20 74 68 65 20 	movabs $0x7365722065687420,%rax
  4029ff:	72 65 73 
  402a02:	48 ba 75 6c 74 20 73 	movabs $0x7672657320746c75,%rdx
  402a09:	65 72 76 
  402a0c:	48 89 45 20          	mov    %rax,0x20(%rbp)
  402a10:	48 89 55 28          	mov    %rdx,0x28(%rbp)
  402a14:	66 c7 45 30 65 72    	movw   $0x7265,0x30(%rbp)
  402a1a:	c6 45 32 00          	movb   $0x0,0x32(%rbp)
  402a1e:	89 df                	mov    %ebx,%edi
  402a20:	e8 bb e6 ff ff       	callq  4010e0 <close@plt>
  402a25:	b8 ff ff ff ff       	mov    $0xffffffff,%eax
  402a2a:	e9 73 fd ff ff       	jmpq   4027a2 <submitr+0x2df>
  402a2f:	48 b8 45 72 72 6f 72 	movabs $0x43203a726f727245,%rax
  402a36:	3a 20 43 
  402a39:	48 ba 6c 69 65 6e 74 	movabs $0x6e7520746e65696c,%rdx
  402a40:	20 75 6e 
  402a43:	48 89 45 00          	mov    %rax,0x0(%rbp)
  402a47:	48 89 55 08          	mov    %rdx,0x8(%rbp)
  402a4b:	48 b8 61 62 6c 65 20 	movabs $0x206f7420656c6261,%rax
  402a52:	74 6f 20 
  402a55:	48 ba 72 65 61 64 20 	movabs $0x7269662064616572,%rdx
  402a5c:	66 69 72 
  402a5f:	48 89 45 10          	mov    %rax,0x10(%rbp)
  402a63:	48 89 55 18          	mov    %rdx,0x18(%rbp)
  402a67:	48 b8 73 74 20 68 65 	movabs $0x6564616568207473,%rax
  402a6e:	61 64 65 
  402a71:	48 ba 72 20 66 72 6f 	movabs $0x72206d6f72662072,%rdx
  402a78:	6d 20 72 
  402a7b:	48 89 45 20          	mov    %rax,0x20(%rbp)
  402a7f:	48 89 55 28          	mov    %rdx,0x28(%rbp)
  402a83:	48 b8 65 73 75 6c 74 	movabs $0x657320746c757365,%rax
  402a8a:	20 73 65 
  402a8d:	48 89 45 30          	mov    %rax,0x30(%rbp)
  402a91:	c7 45 38 72 76 65 72 	movl   $0x72657672,0x38(%rbp)
  402a98:	c6 45 3c 00          	movb   $0x0,0x3c(%rbp)
  402a9c:	89 df                	mov    %ebx,%edi
  402a9e:	e8 3d e6 ff ff       	callq  4010e0 <close@plt>
  402aa3:	b8 ff ff ff ff       	mov    $0xffffffff,%eax
  402aa8:	e9 f5 fc ff ff       	jmpq   4027a2 <submitr+0x2df>
  402aad:	48 8d b4 24 30 60 00 	lea    0x6030(%rsp),%rsi
  402ab4:	00 
  402ab5:	48 8d bc 24 30 80 00 	lea    0x8030(%rsp),%rdi
  402abc:	00 
  402abd:	ba 00 20 00 00       	mov    $0x2000,%edx
  402ac2:	e8 80 f9 ff ff       	callq  402447 <rio_readlineb>
  402ac7:	48 85 c0             	test   %rax,%rax
  402aca:	0f 8e 97 00 00 00    	jle    402b67 <submitr+0x6a4>
  402ad0:	8b 94 24 2c 20 00 00 	mov    0x202c(%rsp),%edx
  402ad7:	81 fa c8 00 00 00    	cmp    $0xc8,%edx
  402add:	0f 85 08 01 00 00    	jne    402beb <submitr+0x728>
  402ae3:	48 8d b4 24 30 60 00 	lea    0x6030(%rsp),%rsi
  402aea:	00 
  402aeb:	48 89 ef             	mov    %rbp,%rdi
  402aee:	e8 7d e5 ff ff       	callq  401070 <strcpy@plt>
  402af3:	89 df                	mov    %ebx,%edi
  402af5:	e8 e6 e5 ff ff       	callq  4010e0 <close@plt>
  402afa:	b9 04 00 00 00       	mov    $0x4,%ecx
  402aff:	48 8d 3d 0a 0c 00 00 	lea    0xc0a(%rip),%rdi        # 403710 <trans_char+0xc0>
  402b06:	48 89 ee             	mov    %rbp,%rsi
  402b09:	f3 a6                	repz cmpsb %es:(%rdi),%ds:(%rsi)
  402b0b:	0f 97 c0             	seta   %al
  402b0e:	1c 00                	sbb    $0x0,%al
  402b10:	0f be c0             	movsbl %al,%eax
  402b13:	85 c0                	test   %eax,%eax
  402b15:	0f 84 87 fc ff ff    	je     4027a2 <submitr+0x2df>
  402b1b:	b9 05 00 00 00       	mov    $0x5,%ecx
  402b20:	48 8d 3d ed 0b 00 00 	lea    0xbed(%rip),%rdi        # 403714 <trans_char+0xc4>
  402b27:	48 89 ee             	mov    %rbp,%rsi
  402b2a:	f3 a6                	repz cmpsb %es:(%rdi),%ds:(%rsi)
  402b2c:	0f 97 c0             	seta   %al
  402b2f:	1c 00                	sbb    $0x0,%al
  402b31:	0f be c0             	movsbl %al,%eax
  402b34:	85 c0                	test   %eax,%eax
  402b36:	0f 84 66 fc ff ff    	je     4027a2 <submitr+0x2df>
  402b3c:	b9 03 00 00 00       	mov    $0x3,%ecx
  402b41:	48 8d 3d d1 0b 00 00 	lea    0xbd1(%rip),%rdi        # 403719 <trans_char+0xc9>
  402b48:	48 89 ee             	mov    %rbp,%rsi
  402b4b:	f3 a6                	repz cmpsb %es:(%rdi),%ds:(%rsi)
  402b4d:	0f 97 c0             	seta   %al
  402b50:	1c 00                	sbb    $0x0,%al
  402b52:	0f be c0             	movsbl %al,%eax
  402b55:	85 c0                	test   %eax,%eax
  402b57:	0f 84 45 fc ff ff    	je     4027a2 <submitr+0x2df>
  402b5d:	b8 ff ff ff ff       	mov    $0xffffffff,%eax
  402b62:	e9 3b fc ff ff       	jmpq   4027a2 <submitr+0x2df>
  402b67:	48 b8 45 72 72 6f 72 	movabs $0x43203a726f727245,%rax
  402b6e:	3a 20 43 
  402b71:	48 ba 6c 69 65 6e 74 	movabs $0x6e7520746e65696c,%rdx
  402b78:	20 75 6e 
  402b7b:	48 89 45 00          	mov    %rax,0x0(%rbp)
  402b7f:	48 89 55 08          	mov    %rdx,0x8(%rbp)
  402b83:	48 b8 61 62 6c 65 20 	movabs $0x206f7420656c6261,%rax
  402b8a:	74 6f 20 
  402b8d:	48 ba 72 65 61 64 20 	movabs $0x6174732064616572,%rdx
  402b94:	73 74 61 
  402b97:	48 89 45 10          	mov    %rax,0x10(%rbp)
  402b9b:	48 89 55 18          	mov    %rdx,0x18(%rbp)
  402b9f:	48 b8 74 75 73 20 6d 	movabs $0x7373656d20737574,%rax
  402ba6:	65 73 73 
  402ba9:	48 ba 61 67 65 20 66 	movabs $0x6d6f726620656761,%rdx
  402bb0:	72 6f 6d 
  402bb3:	48 89 45 20          	mov    %rax,0x20(%rbp)
  402bb7:	48 89 55 28          	mov    %rdx,0x28(%rbp)
  402bbb:	48 b8 20 72 65 73 75 	movabs $0x20746c7573657220,%rax
  402bc2:	6c 74 20 
  402bc5:	48 89 45 30          	mov    %rax,0x30(%rbp)
  402bc9:	c7 45 38 73 65 72 76 	movl   $0x76726573,0x38(%rbp)
  402bd0:	66 c7 45 3c 65 72    	movw   $0x7265,0x3c(%rbp)
  402bd6:	c6 45 3e 00          	movb   $0x0,0x3e(%rbp)
  402bda:	89 df                	mov    %ebx,%edi
  402bdc:	e8 ff e4 ff ff       	callq  4010e0 <close@plt>
  402be1:	b8 ff ff ff ff       	mov    $0xffffffff,%eax
  402be6:	e9 b7 fb ff ff       	jmpq   4027a2 <submitr+0x2df>
  402beb:	48 8d 4c 24 20       	lea    0x20(%rsp),%rcx
  402bf0:	48 8d 35 d1 0a 00 00 	lea    0xad1(%rip),%rsi        # 4036c8 <trans_char+0x78>
  402bf7:	48 89 ef             	mov    %rbp,%rdi
  402bfa:	b8 00 00 00 00       	mov    $0x0,%eax
  402bff:	e8 dc e5 ff ff       	callq  4011e0 <sprintf@plt>
  402c04:	89 df                	mov    %ebx,%edi
  402c06:	e8 d5 e4 ff ff       	callq  4010e0 <close@plt>
  402c0b:	b8 ff ff ff ff       	mov    $0xffffffff,%eax
  402c10:	e9 8d fb ff ff       	jmpq   4027a2 <submitr+0x2df>

0000000000402c15 <init_timeout>:
  402c15:	85 ff                	test   %edi,%edi
  402c17:	74 26                	je     402c3f <init_timeout+0x2a>
  402c19:	53                   	push   %rbx
  402c1a:	89 fb                	mov    %edi,%ebx
  402c1c:	78 1a                	js     402c38 <init_timeout+0x23>
  402c1e:	48 8d 35 31 f6 ff ff 	lea    -0x9cf(%rip),%rsi        # 402256 <sigalrm_handler>
  402c25:	bf 0e 00 00 00       	mov    $0xe,%edi
  402c2a:	e8 d1 e4 ff ff       	callq  401100 <signal@plt>
  402c2f:	89 df                	mov    %ebx,%edi
  402c31:	e8 9a e4 ff ff       	callq  4010d0 <alarm@plt>
  402c36:	5b                   	pop    %rbx
  402c37:	c3                   	retq   
  402c38:	bb 00 00 00 00       	mov    $0x0,%ebx
  402c3d:	eb df                	jmp    402c1e <init_timeout+0x9>
  402c3f:	c3                   	retq   

0000000000402c40 <init_driver>:
  402c40:	41 54                	push   %r12
  402c42:	55                   	push   %rbp
  402c43:	53                   	push   %rbx
  402c44:	48 83 ec 10          	sub    $0x10,%rsp
  402c48:	49 89 fc             	mov    %rdi,%r12
  402c4b:	be 01 00 00 00       	mov    $0x1,%esi
  402c50:	bf 0d 00 00 00       	mov    $0xd,%edi
  402c55:	e8 a6 e4 ff ff       	callq  401100 <signal@plt>
  402c5a:	be 01 00 00 00       	mov    $0x1,%esi
  402c5f:	bf 1d 00 00 00       	mov    $0x1d,%edi
  402c64:	e8 97 e4 ff ff       	callq  401100 <signal@plt>
  402c69:	be 01 00 00 00       	mov    $0x1,%esi
  402c6e:	bf 1d 00 00 00       	mov    $0x1d,%edi
  402c73:	e8 88 e4 ff ff       	callq  401100 <signal@plt>
  402c78:	ba 00 00 00 00       	mov    $0x0,%edx
  402c7d:	be 01 00 00 00       	mov    $0x1,%esi
  402c82:	bf 02 00 00 00       	mov    $0x2,%edi
  402c87:	e8 94 e5 ff ff       	callq  401220 <socket@plt>
  402c8c:	85 c0                	test   %eax,%eax
  402c8e:	0f 88 8a 00 00 00    	js     402d1e <init_driver+0xde>
  402c94:	89 c3                	mov    %eax,%ebx
  402c96:	48 8d 3d 7f 0a 00 00 	lea    0xa7f(%rip),%rdi        # 40371c <trans_char+0xcc>
  402c9d:	e8 6e e4 ff ff       	callq  401110 <gethostbyname@plt>
  402ca2:	48 85 c0             	test   %rax,%rax
  402ca5:	0f 84 c6 00 00 00    	je     402d71 <init_driver+0x131>
  402cab:	48 89 e5             	mov    %rsp,%rbp
  402cae:	48 c7 44 24 02 00 00 	movq   $0x0,0x2(%rsp)
  402cb5:	00 00 
  402cb7:	c7 45 0a 00 00 00 00 	movl   $0x0,0xa(%rbp)
  402cbe:	66 c7 45 0e 00 00    	movw   $0x0,0xe(%rbp)
  402cc4:	66 c7 04 24 02 00    	movw   $0x2,(%rsp)
  402cca:	48 8b 48 18          	mov    0x18(%rax),%rcx
  402cce:	48 63 50 14          	movslq 0x14(%rax),%rdx
  402cd2:	48 8d 7d 04          	lea    0x4(%rbp),%rdi
  402cd6:	48 8b 31             	mov    (%rcx),%rsi
  402cd9:	e8 b2 e4 ff ff       	callq  401190 <memmove@plt>
  402cde:	66 c7 44 24 02 3c 9a 	movw   $0x9a3c,0x2(%rsp)
  402ce5:	ba 10 00 00 00       	mov    $0x10,%edx
  402cea:	48 89 ee             	mov    %rbp,%rsi
  402ced:	89 df                	mov    %ebx,%edi
  402cef:	e8 0c e5 ff ff       	callq  401200 <connect@plt>
  402cf4:	85 c0                	test   %eax,%eax
  402cf6:	0f 88 e7 00 00 00    	js     402de3 <init_driver+0x1a3>
  402cfc:	89 df                	mov    %ebx,%edi
  402cfe:	e8 dd e3 ff ff       	callq  4010e0 <close@plt>
  402d03:	66 41 c7 04 24 4f 4b 	movw   $0x4b4f,(%r12)
  402d0a:	41 c6 44 24 02 00    	movb   $0x0,0x2(%r12)
  402d10:	b8 00 00 00 00       	mov    $0x0,%eax
  402d15:	48 83 c4 10          	add    $0x10,%rsp
  402d19:	5b                   	pop    %rbx
  402d1a:	5d                   	pop    %rbp
  402d1b:	41 5c                	pop    %r12
  402d1d:	c3                   	retq   
  402d1e:	48 b8 45 72 72 6f 72 	movabs $0x43203a726f727245,%rax
  402d25:	3a 20 43 
  402d28:	48 ba 6c 69 65 6e 74 	movabs $0x6e7520746e65696c,%rdx
  402d2f:	20 75 6e 
  402d32:	49 89 04 24          	mov    %rax,(%r12)
  402d36:	49 89 54 24 08       	mov    %rdx,0x8(%r12)
  402d3b:	48 b8 61 62 6c 65 20 	movabs $0x206f7420656c6261,%rax
  402d42:	74 6f 20 
  402d45:	48 ba 63 72 65 61 74 	movabs $0x7320657461657263,%rdx
  402d4c:	65 20 73 
  402d4f:	49 89 44 24 10       	mov    %rax,0x10(%r12)
  402d54:	49 89 54 24 18       	mov    %rdx,0x18(%r12)
  402d59:	41 c7 44 24 20 6f 63 	movl   $0x656b636f,0x20(%r12)
  402d60:	6b 65 
  402d62:	66 41 c7 44 24 24 74 	movw   $0x74,0x24(%r12)
  402d69:	00 
  402d6a:	b8 ff ff ff ff       	mov    $0xffffffff,%eax
  402d6f:	eb a4                	jmp    402d15 <init_driver+0xd5>
  402d71:	48 b8 45 72 72 6f 72 	movabs $0x44203a726f727245,%rax
  402d78:	3a 20 44 
  402d7b:	48 ba 4e 53 20 69 73 	movabs $0x6e7520736920534e,%rdx
  402d82:	20 75 6e 
  402d85:	49 89 04 24          	mov    %rax,(%r12)
  402d89:	49 89 54 24 08       	mov    %rdx,0x8(%r12)
  402d8e:	48 b8 61 62 6c 65 20 	movabs $0x206f7420656c6261,%rax
  402d95:	74 6f 20 
  402d98:	48 ba 72 65 73 6f 6c 	movabs $0x2065766c6f736572,%rdx
  402d9f:	76 65 20 
  402da2:	49 89 44 24 10       	mov    %rax,0x10(%r12)
  402da7:	49 89 54 24 18       	mov    %rdx,0x18(%r12)
  402dac:	48 b8 73 65 72 76 65 	movabs $0x6120726576726573,%rax
  402db3:	72 20 61 
  402db6:	49 89 44 24 20       	mov    %rax,0x20(%r12)
  402dbb:	41 c7 44 24 28 64 64 	movl   $0x65726464,0x28(%r12)
  402dc2:	72 65 
  402dc4:	66 41 c7 44 24 2c 73 	movw   $0x7373,0x2c(%r12)
  402dcb:	73 
  402dcc:	41 c6 44 24 2e 00    	movb   $0x0,0x2e(%r12)
  402dd2:	89 df                	mov    %ebx,%edi
  402dd4:	e8 07 e3 ff ff       	callq  4010e0 <close@plt>
  402dd9:	b8 ff ff ff ff       	mov    $0xffffffff,%eax
  402dde:	e9 32 ff ff ff       	jmpq   402d15 <init_driver+0xd5>
  402de3:	48 b8 45 72 72 6f 72 	movabs $0x55203a726f727245,%rax
  402dea:	3a 20 55 
  402ded:	48 ba 6e 61 62 6c 65 	movabs $0x6f7420656c62616e,%rdx
  402df4:	20 74 6f 
  402df7:	49 89 04 24          	mov    %rax,(%r12)
  402dfb:	49 89 54 24 08       	mov    %rdx,0x8(%r12)
  402e00:	48 b8 20 63 6f 6e 6e 	movabs $0x7463656e6e6f6320,%rax
  402e07:	65 63 74 
  402e0a:	48 ba 20 74 6f 20 73 	movabs $0x76726573206f7420,%rdx
  402e11:	65 72 76 
  402e14:	49 89 44 24 10       	mov    %rax,0x10(%r12)
  402e19:	49 89 54 24 18       	mov    %rdx,0x18(%r12)
  402e1e:	66 41 c7 44 24 20 65 	movw   $0x7265,0x20(%r12)
  402e25:	72 
  402e26:	41 c6 44 24 22 00    	movb   $0x0,0x22(%r12)
  402e2c:	89 df                	mov    %ebx,%edi
  402e2e:	e8 ad e2 ff ff       	callq  4010e0 <close@plt>
  402e33:	b8 ff ff ff ff       	mov    $0xffffffff,%eax
  402e38:	e9 d8 fe ff ff       	jmpq   402d15 <init_driver+0xd5>

0000000000402e3d <driver_post>:
  402e3d:	53                   	push   %rbx
  402e3e:	4c 89 cb             	mov    %r9,%rbx
  402e41:	45 85 c0             	test   %r8d,%r8d
  402e44:	75 18                	jne    402e5e <driver_post+0x21>
  402e46:	48 85 ff             	test   %rdi,%rdi
  402e49:	74 05                	je     402e50 <driver_post+0x13>
  402e4b:	80 3f 00             	cmpb   $0x0,(%rdi)
  402e4e:	75 32                	jne    402e82 <driver_post+0x45>
  402e50:	66 c7 03 4f 4b       	movw   $0x4b4f,(%rbx)
  402e55:	c6 43 02 00          	movb   $0x0,0x2(%rbx)
  402e59:	44 89 c0             	mov    %r8d,%eax
  402e5c:	5b                   	pop    %rbx
  402e5d:	c3                   	retq   
  402e5e:	48 89 ce             	mov    %rcx,%rsi
  402e61:	48 8d 3d cc 08 00 00 	lea    0x8cc(%rip),%rdi        # 403734 <trans_char+0xe4>
  402e68:	b8 00 00 00 00       	mov    $0x0,%eax
  402e6d:	e8 3e e2 ff ff       	callq  4010b0 <printf@plt>
  402e72:	66 c7 03 4f 4b       	movw   $0x4b4f,(%rbx)
  402e77:	c6 43 02 00          	movb   $0x0,0x2(%rbx)
  402e7b:	b8 00 00 00 00       	mov    $0x0,%eax
  402e80:	eb da                	jmp    402e5c <driver_post+0x1f>
  402e82:	48 83 ec 08          	sub    $0x8,%rsp
  402e86:	41 51                	push   %r9
  402e88:	49 89 c9             	mov    %rcx,%r9
  402e8b:	49 89 d0             	mov    %rdx,%r8
  402e8e:	48 89 f9             	mov    %rdi,%rcx
  402e91:	48 89 f2             	mov    %rsi,%rdx
  402e94:	be 9a 3c 00 00       	mov    $0x3c9a,%esi
  402e99:	48 8d 3d 7c 08 00 00 	lea    0x87c(%rip),%rdi        # 40371c <trans_char+0xcc>
  402ea0:	e8 1e f6 ff ff       	callq  4024c3 <submitr>
  402ea5:	48 83 c4 10          	add    $0x10,%rsp
  402ea9:	eb b1                	jmp    402e5c <driver_post+0x1f>

0000000000402eab <check>:
  402eab:	89 f8                	mov    %edi,%eax
  402ead:	c1 e8 1c             	shr    $0x1c,%eax
  402eb0:	74 1d                	je     402ecf <check+0x24>
  402eb2:	b9 00 00 00 00       	mov    $0x0,%ecx
  402eb7:	83 f9 1f             	cmp    $0x1f,%ecx
  402eba:	7f 0d                	jg     402ec9 <check+0x1e>
  402ebc:	89 f8                	mov    %edi,%eax
  402ebe:	d3 e8                	shr    %cl,%eax
  402ec0:	3c 0a                	cmp    $0xa,%al
  402ec2:	74 11                	je     402ed5 <check+0x2a>
  402ec4:	83 c1 08             	add    $0x8,%ecx
  402ec7:	eb ee                	jmp    402eb7 <check+0xc>
  402ec9:	b8 01 00 00 00       	mov    $0x1,%eax
  402ece:	c3                   	retq   
  402ecf:	b8 00 00 00 00       	mov    $0x0,%eax
  402ed4:	c3                   	retq   
  402ed5:	b8 00 00 00 00       	mov    $0x0,%eax
  402eda:	c3                   	retq   

0000000000402edb <gencookie>:
  402edb:	53                   	push   %rbx
  402edc:	83 c7 01             	add    $0x1,%edi
  402edf:	e8 6c e1 ff ff       	callq  401050 <srandom@plt>
  402ee4:	e8 77 e2 ff ff       	callq  401160 <random@plt>
  402ee9:	89 c3                	mov    %eax,%ebx
  402eeb:	89 c7                	mov    %eax,%edi
  402eed:	e8 b9 ff ff ff       	callq  402eab <check>
  402ef2:	85 c0                	test   %eax,%eax
  402ef4:	74 ee                	je     402ee4 <gencookie+0x9>
  402ef6:	89 d8                	mov    %ebx,%eax
  402ef8:	5b                   	pop    %rbx
  402ef9:	c3                   	retq   
  402efa:	66 0f 1f 44 00 00    	nopw   0x0(%rax,%rax,1)

0000000000402f00 <__libc_csu_init>:
  402f00:	41 57                	push   %r15
  402f02:	49 89 d7             	mov    %rdx,%r15
  402f05:	41 56                	push   %r14
  402f07:	49 89 f6             	mov    %rsi,%r14
  402f0a:	41 55                	push   %r13
  402f0c:	41 89 fd             	mov    %edi,%r13d
  402f0f:	41 54                	push   %r12
  402f11:	4c 8d 25 f8 2e 00 00 	lea    0x2ef8(%rip),%r12        # 405e10 <__frame_dummy_init_array_entry>
  402f18:	55                   	push   %rbp
  402f19:	48 8d 2d f8 2e 00 00 	lea    0x2ef8(%rip),%rbp        # 405e18 <__init_array_end>
  402f20:	53                   	push   %rbx
  402f21:	4c 29 e5             	sub    %r12,%rbp
  402f24:	48 83 ec 08          	sub    $0x8,%rsp
  402f28:	e8 d3 e0 ff ff       	callq  401000 <_init>
  402f2d:	48 c1 fd 03          	sar    $0x3,%rbp
  402f31:	74 1b                	je     402f4e <__libc_csu_init+0x4e>
  402f33:	31 db                	xor    %ebx,%ebx
  402f35:	0f 1f 00             	nopl   (%rax)
  402f38:	4c 89 fa             	mov    %r15,%rdx
  402f3b:	4c 89 f6             	mov    %r14,%rsi
  402f3e:	44 89 ef             	mov    %r13d,%edi
  402f41:	41 ff 14 dc          	callq  *(%r12,%rbx,8)
  402f45:	48 83 c3 01          	add    $0x1,%rbx
  402f49:	48 39 dd             	cmp    %rbx,%rbp
  402f4c:	75 ea                	jne    402f38 <__libc_csu_init+0x38>
  402f4e:	48 83 c4 08          	add    $0x8,%rsp
  402f52:	5b                   	pop    %rbx
  402f53:	5d                   	pop    %rbp
  402f54:	41 5c                	pop    %r12
  402f56:	41 5d                	pop    %r13
  402f58:	41 5e                	pop    %r14
  402f5a:	41 5f                	pop    %r15
  402f5c:	c3                   	retq   
  402f5d:	0f 1f 00             	nopl   (%rax)

0000000000402f60 <__libc_csu_fini>:
  402f60:	c3                   	retq   

Disassembly of section .fini:

0000000000402f64 <_fini>:
  402f64:	48 83 ec 08          	sub    $0x8,%rsp
  402f68:	48 83 c4 08          	add    $0x8,%rsp
  402f6c:	c3                   	retq   
